
SOPC.elf:     file format elf32-littlenios2
SOPC.elf
architecture: nios2, flags 0x00000112:
EXEC_P, HAS_SYMS, D_PAGED
start address 0x040001b4

Program Header:
    LOAD off    0x00001000 vaddr 0x00000000 paddr 0x00000000 align 2**12
         filesz 0x00000000 memsz 0x00000000 flags r-x
    LOAD off    0x00001020 vaddr 0x04000020 paddr 0x04000020 align 2**12
         filesz 0x0000b220 memsz 0x0000b4d0 flags rwx

Sections:
Idx Name          Size      VMA       LMA       File off  Algn
  0 .entry        00000000  00000000  00000000  00001000  2**5
                  CONTENTS, ALLOC, LOAD, READONLY, CODE
  1 .exceptions   00000194  04000020  04000020  00001020  2**2
                  CONTENTS, ALLOC, LOAD, READONLY, CODE
  2 .text         000088c4  040001b4  040001b4  000011b4  2**2
                  CONTENTS, ALLOC, LOAD, READONLY, CODE
  3 .rodata       0000016c  04008a78  04008a78  00009a78  2**2
                  CONTENTS, ALLOC, LOAD, READONLY, DATA
  4 .rwdata       0000265c  04008be4  04008be4  00009be4  2**2
                  CONTENTS, ALLOC, LOAD, DATA, SMALL_DATA
  5 .bss          000002b0  0400b240  0400b240  0000c240  2**2
                  ALLOC, SMALL_DATA
  6 .comment      00000023  00000000  00000000  0000c240  2**0
                  CONTENTS, READONLY
  7 .debug_aranges 000007d0  00000000  00000000  0000c268  2**3
                  CONTENTS, READONLY, DEBUGGING
  8 .debug_pubnames 000013da  00000000  00000000  0000ca38  2**0
                  CONTENTS, READONLY, DEBUGGING
  9 .debug_info   0001201b  00000000  00000000  0000de12  2**0
                  CONTENTS, READONLY, DEBUGGING
 10 .debug_abbrev 000041ed  00000000  00000000  0001fe2d  2**0
                  CONTENTS, READONLY, DEBUGGING
 11 .debug_line   0000b516  00000000  00000000  0002401a  2**0
                  CONTENTS, READONLY, DEBUGGING
 12 .debug_frame  00001818  00000000  00000000  0002f530  2**2
                  CONTENTS, READONLY, DEBUGGING
 13 .debug_str    00001116  00000000  00000000  00030d48  2**0
                  CONTENTS, READONLY, DEBUGGING
 14 .debug_loc    00002b80  00000000  00000000  00031e5e  2**0
                  CONTENTS, READONLY, DEBUGGING
 15 .debug_alt_sim_info 00000050  00000000  00000000  000349e0  2**2
                  CONTENTS, READONLY, DEBUGGING
 16 .debug_ranges 00000108  00000000  00000000  00034a30  2**3
                  CONTENTS, READONLY, DEBUGGING
 17 .thread_model 00000003  00000000  00000000  00037a5c  2**0
                  CONTENTS, READONLY
 18 .cpu          00000003  00000000  00000000  00037a5f  2**0
                  CONTENTS, READONLY
 19 .simulation_enabled 00000001  00000000  00000000  00037a62  2**0
                  CONTENTS, READONLY
 20 .sysid_hash   00000004  00000000  00000000  00037a63  2**0
                  CONTENTS, READONLY
 21 .sysid_base   00000004  00000000  00000000  00037a67  2**0
                  CONTENTS, READONLY
 22 .sysid_time   00000004  00000000  00000000  00037a6b  2**0
                  CONTENTS, READONLY
 23 .stderr_dev   00000009  00000000  00000000  00037a6f  2**0
                  CONTENTS, READONLY
 24 .stdin_dev    00000009  00000000  00000000  00037a78  2**0
                  CONTENTS, READONLY
 25 .stdout_dev   00000009  00000000  00000000  00037a81  2**0
                  CONTENTS, READONLY
 26 .sopc_system_name 00000007  00000000  00000000  00037a8a  2**0
                  CONTENTS, READONLY
 27 .quartus_project_dir 00000017  00000000  00000000  00037a91  2**0
                  CONTENTS, READONLY
 28 .jdi          00003e72  00000000  00000000  00037aa8  2**0
                  CONTENTS, READONLY
SYMBOL TABLE:
00000000 l    d  .entry	00000000 .entry
04000020 l    d  .exceptions	00000000 .exceptions
040001b4 l    d  .text	00000000 .text
04008a78 l    d  .rodata	00000000 .rodata
04008be4 l    d  .rwdata	00000000 .rwdata
0400b240 l    d  .bss	00000000 .bss
00000000 l    d  .comment	00000000 .comment
00000000 l    d  .debug_aranges	00000000 .debug_aranges
00000000 l    d  .debug_pubnames	00000000 .debug_pubnames
00000000 l    d  .debug_info	00000000 .debug_info
00000000 l    d  .debug_abbrev	00000000 .debug_abbrev
00000000 l    d  .debug_line	00000000 .debug_line
00000000 l    d  .debug_frame	00000000 .debug_frame
00000000 l    d  .debug_str	00000000 .debug_str
00000000 l    d  .debug_loc	00000000 .debug_loc
00000000 l    d  .debug_alt_sim_info	00000000 .debug_alt_sim_info
00000000 l    d  .debug_ranges	00000000 .debug_ranges
040001f8 l       .text	00000000 alt_after_alt_main
00000000 l    df *ABS*	00000000 alt_irq_handler.c
00000000 l    df *ABS*	00000000 hello_world.c
04008be4 l     O .rwdata	000004ba Ascii_1
0400909e l     O .rwdata	0000021c Ascii_2
00000000 l    df *ABS*	00000000 oled.c
040092ce l     O .rwdata	000004ba Ascii_1
04009788 l     O .rwdata	0000021c Ascii_2
00000000 l    df *ABS*	00000000 dp-bit.c
040016d8 l     F .text	00000410 _fpadd_parts
00000000 l    df *ABS*	00000000 dp-bit.c
00000000 l    df *ABS*	00000000 dp-bit.c
00000000 l    df *ABS*	00000000 dp-bit.c
00000000 l    df *ABS*	00000000 lib2-divmod.c
04001e48 l     F .text	0000007c udivmodsi4
00000000 l    df *ABS*	00000000 libgcc2.c
00000000 l    df *ABS*	00000000 dp-bit.c
00000000 l    df *ABS*	00000000 dp-bit.c
00000000 l    df *ABS*	00000000 libgcc2.c
00000000 l    df *ABS*	00000000 alt_irq_register.c
00000000 l    df *ABS*	00000000 alt_irq_vars.c
00000000 l    df *ABS*	00000000 alt_main.c
00000000 l    df *ABS*	00000000 alt_usleep.c
00000000 l    df *ABS*	00000000 alt_sys_init.c
040099a4 l     O .rwdata	000000d8 cfi_flash
04009a7c l     O .rwdata	000000c4 epcs
04009b40 l     O .rwdata	00001060 jtag_uart
0400aba0 l     O .rwdata	000000c4 uart0
04002780 l     F .text	00000038 alt_dev_reg
00000000 l    df *ABS*	00000000 altera_avalon_cfi_flash.c
04002854 l     F .text	00000038 alt_flash_device_register
00000000 l    df *ABS*	00000000 altera_avalon_cfi_flash_table.c
04003644 l     F .text	0000007c alt_read_16bit_query_entry
00000000 l    df *ABS*	00000000 altera_avalon_epcs_flash_controller.c
04004554 l     F .text	000001ec alt_epcs_flash_query
0400451c l     F .text	00000038 alt_flash_device_register
04004740 l     F .text	00000108 alt_epcs_flash_memcmp
04004bcc l     F .text	00000094 alt_epcs_test_address
00000000 l    df *ABS*	00000000 altera_avalon_jtag_uart_fd.c
00000000 l    df *ABS*	00000000 altera_avalon_jtag_uart_init.c
04005004 l     F .text	00000228 altera_avalon_jtag_uart_irq
0400522c l     F .text	000000b0 altera_avalon_jtag_uart_timeout
00000000 l    df *ABS*	00000000 altera_avalon_jtag_uart_ioctl.c
00000000 l    df *ABS*	00000000 altera_avalon_jtag_uart_read.c
00000000 l    df *ABS*	00000000 altera_avalon_jtag_uart_write.c
00000000 l    df *ABS*	00000000 altera_avalon_timer_sc.c
040058a8 l     F .text	00000070 alt_avalon_timer_sc_irq
00000000 l    df *ABS*	00000000 altera_avalon_uart_fd.c
00000000 l    df *ABS*	00000000 altera_avalon_uart_init.c
04005b68 l     F .text	0000009c altera_avalon_uart_irq
04005c04 l     F .text	000000e0 altera_avalon_uart_rxirq
04005ce4 l     F .text	0000015c altera_avalon_uart_txirq
00000000 l    df *ABS*	00000000 altera_avalon_uart_read.c
040060d0 l     F .text	00000060 alt_get_errno
00000000 l    df *ABS*	00000000 altera_avalon_uart_write.c
040062f8 l     F .text	00000060 alt_get_errno
00000000 l    df *ABS*	00000000 epcs_commands.c
04006434 l     F .text	00000038 epcs_await_wip_released
0400646c l     F .text	00000038 epcs_test_wip
00000000 l    df *ABS*	00000000 alt_alarm_start.c
00000000 l    df *ABS*	00000000 alt_busy_sleep.c
00000000 l    df *ABS*	00000000 alt_close.c
04006b54 l     F .text	00000060 alt_get_errno
00000000 l    df *ABS*	00000000 alt_dcache_flush.c
00000000 l    df *ABS*	00000000 alt_dev.c
04006c2c l     F .text	0000002c alt_dev_null_write
00000000 l    df *ABS*	00000000 alt_dev_llist_insert.c
04006d0c l     F .text	00000060 alt_get_errno
00000000 l    df *ABS*	00000000 alt_do_ctors.c
00000000 l    df *ABS*	00000000 alt_do_dtors.c
00000000 l    df *ABS*	00000000 alt_errno.c
00000000 l    df *ABS*	00000000 alt_flash_dev.c
00000000 l    df *ABS*	00000000 alt_iic.c
00000000 l    df *ABS*	00000000 alt_iic_isr_register.c
00000000 l    df *ABS*	00000000 alt_io_redirect.c
040071d0 l     F .text	000000c4 alt_open_fd
00000000 l    df *ABS*	00000000 alt_open.c
0400730c l     F .text	000000dc alt_file_locked
04007570 l     F .text	00000060 alt_get_errno
00000000 l    df *ABS*	00000000 alt_release_fd.c
00000000 l    df *ABS*	00000000 alt_tick.c
00000000 l    df *ABS*	00000000 altera_nios2_irq.c
00000000 l    df *ABS*	00000000 altera_avalon_cfi_flash_amd.c
04007b98 l     F .text	000000bc alt_write_word_amd
04007a74 l     F .text	00000124 alt_wait_for_command_to_complete_amd
00000000 l    df *ABS*	00000000 altera_avalon_cfi_flash_intel.c
04007e4c l     F .text	0000018c alt_unlock_block_intel
04007fd8 l     F .text	000000dc alt_write_word_intel
00000000 l    df *ABS*	00000000 altera_avalon_spi.c
00000000 l    df *ABS*	00000000 alt_find_dev.c
00000000 l    df *ABS*	00000000 alt_find_file.c
00000000 l    df *ABS*	00000000 alt_get_fd.c
00000000 l    df *ABS*	00000000 atexit.c
00000000 l    df *ABS*	00000000 exit.c
00000000 l    df *ABS*	00000000 impure.c
0400ae0c l     O .rwdata	00000400 impure_data
00000000 l    df *ABS*	00000000 int_errno.c
00000000 l    df *ABS*	00000000 memcmp.c
00000000 l    df *ABS*	00000000 memcpy.c
00000000 l    df *ABS*	00000000 strlen.c
00000000 l    df *ABS*	00000000 __atexit.c
00000000 l    df *ABS*	00000000 __call_atexit.c
04008860 l     F .text	00000004 register_fini
00000000 l    df *ABS*	00000000 alt_exit.c
04008a14 l     F .text	00000040 alt_sim_halt
04004ac8 g     F .text	00000090 alt_epcs_flash_get_info
04000770 g     F .text	0000003c Set_Inverse_Display
04002620 g     F .text	0000006c alt_main
040012d0 g     F .text	00000070 Fade_In
04003104 g     F .text	00000048 alt_read_query_entry_32bit
0400b260 g     O .bss	00000100 alt_irq
04001024 g     F .text	00000140 Vertical_Scroll
0400288c g     F .text	000002c0 alt_flash_cfi_write
0400035c g     F .text	00000030 isr_timer0
04000a88 g     F .text	0000003c Set_Read_Modify_Write
04000414 g     F .text	0000002c Write_Command
040005c8 g     F .text	00000044 Set_Column_Address
00000000  w      *UND*	00000000 __errno
040063b8 g     F .text	0000007c epcs_sector_erase
04003290 g     F .text	00000048 alt_write_flash_command_32bit_device_16bit_mode
00000000 g     F .entry	00000000 __reset
04002da8 g     F .text	000002d8 alt_flash_program_block
0400b25c g     O .bss	00000004 errno
040008b8 g     F .text	0000003c Set_Start_Page
0400b24c g     O .bss	00000004 alt_argv
0401320c g       *ABS*	00000000 _gp
0400268c g     F .text	00000030 usleep
04001428 g     F .text	00000064 Test
0400ac8c g     O .rwdata	00000180 alt_fd_list
04000548 g     F .text	00000048 Set_Start_Column
04000c90 g     F .text	00000114 Frame
040065a8 g     F .text	00000064 epcs_write_status_register
040082ec g     F .text	00000094 alt_find_dev
04008618 g     F .text	000000a0 memcpy
04000a50 g     F .text	00000038 Set_VCOMH
0400155c g     F .text	0000017c OLED_Init
04007294 g     F .text	00000078 alt_io_redirect
04008a78 g       *ABS*	00000000 __DTOR_END__
040077d4 g     F .text	00000020 altera_nios2_irq_init
04004c60 g     F .text	00000110 alt_epcs_flash_write_block
04005444 g     F .text	00000224 altera_avalon_jtag_uart_read
00000000  w      *UND*	00000000 malloc
04001f84 g     F .text	00000008 __udivsi3
04000ac4 g     F .text	0000002c Set_NOP
04001340 g     F .text	00000078 Fade_Out
04007c54 g     F .text	00000084 alt_program_intel
040006f8 g     F .text	0000003c Set_Segment_Remap
040006c0 g     F .text	00000038 Set_Area_Brightness
04006bb4 g     F .text	00000078 alt_dcache_flush
0400b220 g     O .rwdata	00000004 alt_max_fd
04003080 g     F .text	00000040 alt_read_query_entry_8bit
04002328 g     F .text	00000138 __unpack_d
04007cd8 g     F .text	00000174 alt_erase_block_intel
04002460 g     F .text	000001c0 alt_irq_register
040011e8 g     F .text	000000bc Continuous_Scroll
04001b68 g     F .text	00000074 __adddf3
04004b58 g     F .text	00000074 alt_epcs_flash_erase_block
040007ac g     F .text	00000038 Set_Multiplex_Ratio
0400b23c g     O .rwdata	00000004 _global_impure_ptr
0400b4f0 g       *ABS*	00000000 __bss_end
040070d8 g     F .text	000000f8 alt_iic_isr_register
040076c8 g     F .text	0000010c alt_tick
04001cb4 g     F .text	00000194 __floatunsidf
04005aa0 g     F .text	000000c8 altera_avalon_uart_init
04007090 g     F .text	00000048 alt_ic_irq_enabled
04007630 g     F .text	00000098 alt_alarm_stop
04000590 g     F .text	00000038 Set_Addressing_Mode
0400b244 g     O .bss	00000004 alt_irq_active
04000f6c g     F .text	000000b8 Show_Pattern
040000ec g     F .exceptions	000000c8 alt_irq_handler
0400ac64 g     O .rwdata	00000028 alt_dev_null
04000838 g     F .text	00000044 Set_Master_Config
04000da4 g     F .text	0000012c Show_Font57
04003598 g     F .text	000000ac alt_set_flash_algorithm_func
04001bdc g     F .text	000000d8 __fixdfsi
0400314c g     F .text	0000003c alt_write_flash_command_8bit_device_8bit_mode
0400b218 g     O .rwdata	00000008 alt_dev_list
04000930 g     F .text	00000038 Set_Display_Offset
04000280 g     F .text	0000008c uart_isr
040043ec g     F .text	000000dc alt_check_primary_table
04001f8c g     F .text	00000008 __umodsi3
04002bdc g     F .text	00000068 alt_flash_cfi_read
04003320 g     F .text	00000034 alt_write_native_8bit
040066e4 g     F .text	0000006c epcs_read_electronic_signature
0400b4f0 g       *ABS*	00000000 end
040013b8 g     F .text	00000070 Sleep
04003188 g     F .text	0000007c alt_write_flash_command_16bit_device_8bit_mode
0400030c g     F .text	00000050 UartInit
04006130 g     F .text	000001c8 altera_avalon_uart_write
040036c0 g     F .text	00000580 alt_read_cfi_table
04004f44 g     F .text	000000c0 altera_avalon_jtag_uart_init
04000c0c g     F .text	00000084 Checkerboard
04008a74 g       *ABS*	00000000 __CTOR_LIST__
06000000 g       *ABS*	00000000 __alt_stack_pointer
04005918 g     F .text	00000090 alt_avalon_timer_sc_init
04005a00 g     F .text	00000058 altera_avalon_uart_write_fd
04001f94 g     F .text	00000080 __clzsi2
04005a58 g     F .text	00000048 altera_avalon_uart_close_fd
04005668 g     F .text	00000240 altera_avalon_jtag_uart_write
040027b8 g     F .text	0000009c alt_flash_cfi_init
04008864 g     F .text	000001b0 __call_exitprocs
040001b4 g     F .text	00000048 _start
0400b254 g     O .bss	00000004 _alt_tick_rate
04000968 g     F .text	00000038 Set_Display_Clock
040080b4 g     F .text	00000238 alt_avalon_spi_command
0400b258 g     O .bss	00000004 _alt_nticks
040026f0 g     F .text	00000090 alt_sys_init
0400872c g     F .text	00000134 __register_exitproc
0400060c g     F .text	00000044 Set_Page_Address
040001fc g     F .text	00000084 SetBaudrate
040009d8 g     F .text	00000038 Set_Precharge_Period
040030c0 g     F .text	00000044 alt_read_query_entry_16bit
04000650 g     F .text	00000038 Set_Start_Line
040052dc g     F .text	00000074 altera_avalon_jtag_uart_close
040033b8 g     F .text	000001e0 alt_set_flash_width_func
04006358 g     F .text	00000060 epcs_read_status_register
04004dfc g     F .text	00000058 altera_avalon_jtag_uart_read_fd
040084a0 g     F .text	000000b8 alt_get_fd
0400690c g     F .text	0000014c alt_busy_sleep
0400087c g     F .text	0000003c Set_Display_On_Off
0400785c g     F .text	00000218 alt_erase_block_amd
04006750 g     F .text	00000068 epcs_read_device_id
040085a4 g     F .text	00000074 memcmp
04004eac g     F .text	00000048 altera_avalon_jtag_uart_close_fd
0400b4f0 g       *ABS*	00000000 __alt_stack_base
04004ef4 g     F .text	00000050 altera_avalon_jtag_uart_ioctl_fd
04003c40 g     F .text	000007ac alt_read_cfi_width
0400046c g     F .text	0000004c uDelay
040012a4 g     F .text	0000002c Deactivate_Scroll
040008f4 g     F .text	0000003c Set_Common_Remap
04008380 g     F .text	00000120 alt_find_file
04006c58 g     F .text	000000b4 alt_dev_llist_insert
0400b228 g     O .rwdata	00000008 alt_flash_dev_list
0400324c g     F .text	00000044 alt_write_flash_command_16bit_device_16bit_mode
0400b240 g       *ABS*	00000000 __bss_start
040003f4 g     F .text	00000020 main
0400b250 g     O .bss	00000004 alt_envp
04004e54 g     F .text	00000058 altera_avalon_jtag_uart_write_fd
0400b240 g     O .bss	00000004 TxCounter
0400b360 g     O .bss	00000190 _atexit0
0400b224 g     O .rwdata	00000004 alt_errno
040032d8 g     F .text	00000048 alt_write_flash_command_32bit_device_32bit_mode
04002c44 g     F .text	00000164 alt_write_value_to_flash
04003354 g     F .text	00000034 alt_write_native_16bit
04001ec4 g     F .text	00000060 __divsi3
01000000 g       *ABS*	00000000 __alt_mem_cfi_flash
04008a78 g     O .rodata	00000014 __thenan_df
04008a78 g       *ABS*	00000000 __CTOR_END__
04004848 g     F .text	00000280 alt_epcs_flash_write
04008a78 g       *ABS*	00000000 __DTOR_LIST__
040092ba g     O .rwdata	00000014 UartTxBuffer
04001164 g     F .text	00000084 Horizontal_Scroll
040026bc g     F .text	00000034 alt_irq_init
040075d0 g     F .text	00000060 alt_release_fd
04000734 g     F .text	0000003c Set_Entire_Display
04008a8c g     O .rodata	00000100 __clz_tab
04008558 g     F .text	00000014 atexit
0400b238 g     O .rwdata	00000004 _impure_ptr
0400b248 g     O .bss	00000004 alt_argc
04006dd0 g     F .text	00000064 _do_dtors
04000b70 g     F .text	0000009c Fill_Block
04000020 g       .exceptions	00000000 alt_irq_entry
040004b8 g     F .text	00000090 Delay
0400b210 g     O .rwdata	00000008 alt_fs_list
04003204 g     F .text	00000048 alt_write_flash_command_32bit_device_8bit_mode
040009a0 g     F .text	00000038 Set_Area_Color
040014e8 g     F .text	00000074 Set_Bank_Color
040007e4 g     F .text	00000054 Set_Dim_Mode
040064a4 g     F .text	000000b4 epcs_read_buffer
040044c8 g     F .text	00000054 alt_epcs_flash_init
04006f04 g     F .text	00000050 alt_ic_isr_register
0400b240 g       *ABS*	00000000 _edata
040059a8 g     F .text	00000058 altera_avalon_uart_read_fd
0400b4f0 g       *ABS*	00000000 _end
04006e34 g     F .text	0000007c alt_flash_open_dev
0400148c g     F .text	0000005c Set_LUT
04005350 g     F .text	000000f4 altera_avalon_jtag_uart_ioctl
04006ff0 g     F .text	000000a0 alt_ic_irq_disable
0400856c g     F .text	00000038 exit
04006eb0 g     F .text	00000054 alt_flash_close_dev
04000ed0 g     F .text	0000009c Show_String
04001f24 g     F .text	00000060 __modsi3
04000688 g     F .text	00000038 Set_Contrast_Control
06000000 g       *ABS*	00000000 __alt_data_end
04000020 g     F .exceptions	00000000 alt_exception
04000000 g       *ABS*	00000000 __alt_mem_sdram
04000a10 g     F .text	00000040 Set_Common_Config
04005e40 g     F .text	00000060 altera_avalon_uart_close
04008a54 g     F .text	00000020 _exit
040067b8 g     F .text	00000154 alt_alarm_start
04003388 g     F .text	00000030 alt_write_native_32bit
040086b8 g     F .text	00000074 strlen
04006558 g     F .text	00000050 epcs_write_enable
040073e8 g     F .text	00000188 open
04002b4c g     F .text	00000090 alt_flash_cfi_get_info
04000440 g     F .text	0000002c Write_Data
0400b20c g     O .rwdata	00000004 alt_priority_mask
04006f54 g     F .text	0000009c alt_ic_irq_enable
00000000 g       *ABS*	00000000 __alt_mem_epcs
04000af0 g     F .text	00000080 Fill_RAM
04005ea0 g     F .text	00000230 altera_avalon_uart_read
04001ae8 g     F .text	00000080 __subdf3
04004d70 g     F .text	0000008c alt_epcs_flash_read
0400b230 g     O .rwdata	00000008 alt_alarm_list
04006d6c g     F .text	00000064 _do_ctors
0400038c g     F .text	00000068 TimerInit
04006a58 g     F .text	000000fc close
040077f4 g     F .text	00000068 alt_program_amd
04002014 g     F .text	00000314 __pack_d
00000000  w      *UND*	00000000 free
0400660c g     F .text	000000d8 epcs_write_buffer



Disassembly of section .exceptions:

04000020 <alt_exception>:
         * Process an exception.  For all exceptions we must preserve all
         * caller saved registers on the stack (See the Nios2 ABI
         * documentation for details).
         */

        addi  sp, sp, -76
 4000020:	deffed04 	addi	sp,sp,-76

#endif

#endif

        stw   ra,  0(sp)
 4000024:	dfc00015 	stw	ra,0(sp)
        /*
         * Leave a gap in the stack frame at 4(sp) for the muldiv handler to
         * store zero into.
         */

        stw   r1,   8(sp)
 4000028:	d8400215 	stw	at,8(sp)
        stw   r2,  12(sp)
 400002c:	d8800315 	stw	r2,12(sp)
        stw   r3,  16(sp)
 4000030:	d8c00415 	stw	r3,16(sp)
        stw   r4,  20(sp)
 4000034:	d9000515 	stw	r4,20(sp)
        stw   r5,  24(sp)
 4000038:	d9400615 	stw	r5,24(sp)
        stw   r6,  28(sp)
 400003c:	d9800715 	stw	r6,28(sp)
        stw   r7,  32(sp)
 4000040:	d9c00815 	stw	r7,32(sp)

        rdctl r5, estatus
 4000044:	000b307a 	rdctl	r5,estatus

        stw   r8,  36(sp)
 4000048:	da000915 	stw	r8,36(sp)
        stw   r9,  40(sp)
 400004c:	da400a15 	stw	r9,40(sp)
        stw   r10, 44(sp)
 4000050:	da800b15 	stw	r10,44(sp)
        stw   r11, 48(sp)
 4000054:	dac00c15 	stw	r11,48(sp)
        stw   r12, 52(sp)
 4000058:	db000d15 	stw	r12,52(sp)
        stw   r13, 56(sp)
 400005c:	db400e15 	stw	r13,56(sp)
        stw   r14, 60(sp)
 4000060:	db800f15 	stw	r14,60(sp)
        stw   r15, 64(sp)
 4000064:	dbc01015 	stw	r15,64(sp)
        /*
         * ea-4 contains the address of the instruction being executed
         * when the exception occured. For interrupt exceptions, we will
         * will be re-issue the isntruction. Store it in 72(sp)
         */
        stw   r5,  68(sp)  /* estatus */
 4000068:	d9401115 	stw	r5,68(sp)
        addi  r15, ea, -4  /* instruction that caused exception */
 400006c:	ebffff04 	addi	r15,ea,-4
        stw   r15,  72(sp)
 4000070:	dbc01215 	stw	r15,72(sp)
#else
        /*
         * Test to see if the exception was a software exception or caused 
         * by an external interrupt, and vector accordingly.
         */
        rdctl r4, ipending
 4000074:	0009313a 	rdctl	r4,ipending
        andi  r2, r5, 1
 4000078:	2880004c 	andi	r2,r5,1
        beq   r2, zero, .Lnot_irq
 400007c:	10000326 	beq	r2,zero,400008c <alt_exception+0x6c>
        beq   r4, zero, .Lnot_irq
 4000080:	20000226 	beq	r4,zero,400008c <alt_exception+0x6c>
        /*
         * Now that all necessary registers have been preserved, call 
         * alt_irq_handler() to process the interrupts.
         */

        call alt_irq_handler
 4000084:	40000ec0 	call	40000ec <alt_irq_handler>

        .section .exceptions.irqreturn, "xa"

        br    .Lexception_exit
 4000088:	00000306 	br	4000098 <alt_exception+0x78>
         * upon completion, so we write ea (address of instruction *after*
         * the one where the exception occured) into 72(sp). The actual
         * instruction that caused the exception is written in r2, which these
         * handlers will utilize.
         */
        stw   ea,  72(sp)  /* Don't re-issue */
 400008c:	df401215 	stw	ea,72(sp)
        ldw   r2, -4(ea)   /* Instruction that caused exception */
 4000090:	e8bfff17 	ldw	r2,-4(ea)
#ifdef NIOS2_HAS_DEBUG_STUB
       /*
        *  Either tell the user now (if there is a debugger attached) or go into
        *  the debug monitor which will loop until a debugger is attached.
        */
        break
 4000094:	003da03a 	break	0
        /* 
         * Restore the saved registers, so that all general purpose registers 
         * have been restored to their state at the time the interrupt occured.
         */

        ldw   r5,  68(sp)
 4000098:	d9401117 	ldw	r5,68(sp)
        ldw   ea,  72(sp)  /* This becomes the PC once eret is executed */
 400009c:	df401217 	ldw	ea,72(sp)
        ldw   ra,   0(sp)
 40000a0:	dfc00017 	ldw	ra,0(sp)

        wrctl estatus, r5
 40000a4:	2801707a 	wrctl	estatus,r5

        ldw   r1,   8(sp)
 40000a8:	d8400217 	ldw	at,8(sp)
        ldw   r2,  12(sp)
 40000ac:	d8800317 	ldw	r2,12(sp)
        ldw   r3,  16(sp)
 40000b0:	d8c00417 	ldw	r3,16(sp)
        ldw   r4,  20(sp)
 40000b4:	d9000517 	ldw	r4,20(sp)
        ldw   r5,  24(sp)
 40000b8:	d9400617 	ldw	r5,24(sp)
        ldw   r6,  28(sp)
 40000bc:	d9800717 	ldw	r6,28(sp)
        ldw   r7,  32(sp)
 40000c0:	d9c00817 	ldw	r7,32(sp)
#ifdef ALT_STACK_CHECK
        ldw   et, %gprel(alt_exception_old_stack_limit)(gp)
#endif
#endif

        ldw   r8,  36(sp)
 40000c4:	da000917 	ldw	r8,36(sp)
        ldw   r9,  40(sp)
 40000c8:	da400a17 	ldw	r9,40(sp)
        ldw   r10, 44(sp)
 40000cc:	da800b17 	ldw	r10,44(sp)
        ldw   r11, 48(sp)
 40000d0:	dac00c17 	ldw	r11,48(sp)
        ldw   r12, 52(sp)
 40000d4:	db000d17 	ldw	r12,52(sp)
        ldw   r13, 56(sp)
 40000d8:	db400e17 	ldw	r13,56(sp)
        ldw   r14, 60(sp)
 40000dc:	db800f17 	ldw	r14,60(sp)
        ldw   r15, 64(sp)
 40000e0:	dbc01017 	ldw	r15,64(sp)
#endif

        ldw   sp,  76(sp)

#else
        addi  sp, sp, 76
 40000e4:	dec01304 	addi	sp,sp,76

        /*
         * Return to the interrupted instruction.
         */

        eret
 40000e8:	ef80083a 	eret

040000ec <alt_irq_handler>:
 * instruction is present if the macro ALT_CI_INTERRUPT_VECTOR defined.
 */

void alt_irq_handler (void) __attribute__ ((section (".exceptions")));
void alt_irq_handler (void)
{
 40000ec:	defff904 	addi	sp,sp,-28
 40000f0:	dfc00615 	stw	ra,24(sp)
 40000f4:	df000515 	stw	fp,20(sp)
 40000f8:	df000504 	addi	fp,sp,20
#ifndef NIOS2_EIC_PRESENT
static ALT_INLINE alt_u32 ALT_ALWAYS_INLINE alt_irq_pending (void)
{
  alt_u32 active;

  NIOS2_READ_IPENDING (active);
 40000fc:	0005313a 	rdctl	r2,ipending
 4000100:	e0bffc15 	stw	r2,-16(fp)

  return active;
 4000104:	e0bffc17 	ldw	r2,-16(fp)
   * Consider the case where the high priority interupt is asserted during
   * the interrupt entry sequence for a lower priority interrupt to see why
   * this is the case.
   */

  active = alt_irq_pending ();
 4000108:	e0bfff15 	stw	r2,-4(fp)

  do
  {
    i = 0;
 400010c:	e03ffd15 	stw	zero,-12(fp)
    mask = 1;
 4000110:	00800044 	movi	r2,1
 4000114:	e0bffe15 	stw	r2,-8(fp)
     * called to clear the interrupt condition.
     */

    do
    {
      if (active & mask)
 4000118:	e0ffff17 	ldw	r3,-4(fp)
 400011c:	e0bffe17 	ldw	r2,-8(fp)
 4000120:	1884703a 	and	r2,r3,r2
 4000124:	1005003a 	cmpeq	r2,r2,zero
 4000128:	1000161e 	bne	r2,zero,4000184 <alt_irq_handler+0x98>
      { 
#ifdef ALT_ENHANCED_INTERRUPT_API_PRESENT
        alt_irq[i].handler(alt_irq[i].context); 
 400012c:	e0bffd17 	ldw	r2,-12(fp)
 4000130:	00c10074 	movhi	r3,1025
 4000134:	18ec9804 	addi	r3,r3,-19872
 4000138:	100490fa 	slli	r2,r2,3
 400013c:	10c5883a 	add	r2,r2,r3
 4000140:	11400017 	ldw	r5,0(r2)
 4000144:	e0bffd17 	ldw	r2,-12(fp)
 4000148:	00c10074 	movhi	r3,1025
 400014c:	18ec9804 	addi	r3,r3,-19872
 4000150:	100490fa 	slli	r2,r2,3
 4000154:	10c5883a 	add	r2,r2,r3
 4000158:	10800104 	addi	r2,r2,4
 400015c:	11000017 	ldw	r4,0(r2)
 4000160:	283ee83a 	callr	r5
#ifndef NIOS2_EIC_PRESENT
static ALT_INLINE alt_u32 ALT_ALWAYS_INLINE alt_irq_pending (void)
{
  alt_u32 active;

  NIOS2_READ_IPENDING (active);
 4000164:	0005313a 	rdctl	r2,ipending
 4000168:	e0bffb15 	stw	r2,-20(fp)

  return active;
 400016c:	e0bffb17 	ldw	r2,-20(fp)
      mask <<= 1;
      i++;

    } while (1);

    active = alt_irq_pending ();
 4000170:	e0bfff15 	stw	r2,-4(fp)
    
  } while (active);
 4000174:	e0bfff17 	ldw	r2,-4(fp)
 4000178:	1004c03a 	cmpne	r2,r2,zero
 400017c:	103fe31e 	bne	r2,zero,400010c <alt_irq_handler+0x20>
 4000180:	00000706 	br	40001a0 <alt_irq_handler+0xb4>
#else
        alt_irq[i].handler(alt_irq[i].context, i); 
#endif
        break;
      }
      mask <<= 1;
 4000184:	e0bffe17 	ldw	r2,-8(fp)
 4000188:	1085883a 	add	r2,r2,r2
 400018c:	e0bffe15 	stw	r2,-8(fp)
      i++;
 4000190:	e0bffd17 	ldw	r2,-12(fp)
 4000194:	10800044 	addi	r2,r2,1
 4000198:	e0bffd15 	stw	r2,-12(fp)

    } while (1);
 400019c:	003fde06 	br	4000118 <alt_irq_handler+0x2c>
  /*
   * Notify the operating system that interrupt processing is complete.
   */ 

  ALT_OS_INT_EXIT();
}
 40001a0:	e037883a 	mov	sp,fp
 40001a4:	dfc00117 	ldw	ra,4(sp)
 40001a8:	df000017 	ldw	fp,0(sp)
 40001ac:	dec00204 	addi	sp,sp,8
 40001b0:	f800283a 	ret

Disassembly of section .text:

040001b4 <_start>:

    /* Assume the data cache size is always a power of two. */
#if NIOS2_DCACHE_SIZE > 0x8000
    movhi r2, %hi(NIOS2_DCACHE_SIZE)
#else
    movui r2, NIOS2_DCACHE_SIZE
 40001b4:	00820014 	movui	r2,2048
#endif

0:
    initd 0(r2)
 40001b8:	10000033 	initd	0(r2)
    addi r2, r2, -NIOS2_DCACHE_LINE_SIZE
 40001bc:	10bff804 	addi	r2,r2,-32
    bgt r2, zero, 0b
 40001c0:	00bffd16 	blt	zero,r2,40001b8 <_start+0x4>
#if (NIOS2_NUM_OF_SHADOW_REG_SETS == 0)    
    /*
     * Now that the caches are initialized, set up the stack pointer.
     * The value provided by the linker is assumed to be correctly aligned.
     */
    movhi sp, %hi(__alt_stack_pointer)
 40001c4:	06c18034 	movhi	sp,1536
    ori sp, sp, %lo(__alt_stack_pointer)
 40001c8:	dec00014 	ori	sp,sp,0

    /* Set up the global pointer. */
    movhi gp, %hi(_gp)
 40001cc:	06810074 	movhi	gp,1025
    ori gp, gp, %lo(_gp)
 40001d0:	d68c8314 	ori	gp,gp,12812
 */
#ifndef ALT_SIM_OPTIMIZE
    /* Log that the BSS is about to be cleared. */
    ALT_LOG_PUTS(alt_log_msg_bss)

    movhi r2, %hi(__bss_start)
 40001d4:	00810034 	movhi	r2,1024
    ori r2, r2, %lo(__bss_start)
 40001d8:	10ac9014 	ori	r2,r2,45632

    movhi r3, %hi(__bss_end)
 40001dc:	00c10034 	movhi	r3,1024
    ori r3, r3, %lo(__bss_end)
 40001e0:	18ed3c14 	ori	r3,r3,46320

    beq r2, r3, 1f
 40001e4:	10c00326 	beq	r2,r3,40001f4 <_start+0x40>

0:
    stw zero, (r2)
 40001e8:	10000015 	stw	zero,0(r2)
    addi r2, r2, 4
 40001ec:	10800104 	addi	r2,r2,4
    bltu r2, r3, 0b
 40001f0:	10fffd36 	bltu	r2,r3,40001e8 <_start+0x34>

    /* Log that alt_main is about to be called. */
    ALT_LOG_PUTS(alt_log_msg_alt_main)

    /* Call the C entry point. It should never return. */
    call alt_main
 40001f4:	40026200 	call	4002620 <alt_main>

040001f8 <alt_after_alt_main>:

    /* Wait in infinite loop in case alt_main does return. */
alt_after_alt_main:
    br alt_after_alt_main
 40001f8:	003fff06 	br	40001f8 <alt_after_alt_main>

040001fc <SetBaudrate>:
unsigned char UartTxBuffer[20] = {'H','E','L','L','O',' ','W','O','R','L','D','\n'};
int TxCounter;

/*串口配置*/
void SetBaudrate(unsigned int baudrate)  //波特率配置
{
 40001fc:	defffd04 	addi	sp,sp,-12
 4000200:	dfc00215 	stw	ra,8(sp)
 4000204:	df000115 	stw	fp,4(sp)
 4000208:	df000104 	addi	fp,sp,4
 400020c:	e13fff15 	stw	r4,-4(fp)
     IOWR_ALTERA_AVALON_UART_DIVISOR(UART0_BASE, ALT_CPU_FREQ/baudrate+0.5);
 4000210:	0100bef4 	movhi	r4,763
 4000214:	213c2004 	addi	r4,r4,-3968
 4000218:	e17fff17 	ldw	r5,-4(fp)
 400021c:	4001f840 	call	4001f84 <__udivsi3>
 4000220:	1009883a 	mov	r4,r2
 4000224:	4001cb40 	call	4001cb4 <__floatunsidf>
 4000228:	100b883a 	mov	r5,r2
 400022c:	180d883a 	mov	r6,r3
 4000230:	2809883a 	mov	r4,r5
 4000234:	300b883a 	mov	r5,r6
 4000238:	000d883a 	mov	r6,zero
 400023c:	01cff834 	movhi	r7,16352
 4000240:	4001b680 	call	4001b68 <__adddf3>
 4000244:	1009883a 	mov	r4,r2
 4000248:	180b883a 	mov	r5,r3
 400024c:	2005883a 	mov	r2,r4
 4000250:	2807883a 	mov	r3,r5
 4000254:	1009883a 	mov	r4,r2
 4000258:	180b883a 	mov	r5,r3
 400025c:	4001bdc0 	call	4001bdc <__fixdfsi>
 4000260:	1007883a 	mov	r3,r2
 4000264:	00870404 	movi	r2,7184
 4000268:	10c00035 	stwio	r3,0(r2)
}
 400026c:	e037883a 	mov	sp,fp
 4000270:	dfc00117 	ldw	ra,4(sp)
 4000274:	df000017 	ldw	fp,0(sp)
 4000278:	dec00204 	addi	sp,sp,8
 400027c:	f800283a 	ret

04000280 <uart_isr>:
         UartSendByte(*str++);
     }
} */

void uart_isr()
{
 4000280:	defffe04 	addi	sp,sp,-8
 4000284:	df000115 	stw	fp,4(sp)
 4000288:	df000104 	addi	fp,sp,4
    int status = 0;
 400028c:	e03fff15 	stw	zero,-4(fp)
    status = IORD_ALTERA_AVALON_UART_STATUS(UART0_BASE);  //读取状态寄存器
 4000290:	00870204 	movi	r2,7176
 4000294:	10800037 	ldwio	r2,0(r2)
 4000298:	e0bfff15 	stw	r2,-4(fp)
    IOWR_ALTERA_AVALON_UART_STATUS(UART0_BASE, 0);        //清状态寄存器
 400029c:	00870204 	movi	r2,7176
 40002a0:	10000035 	stwio	zero,0(r2)
    if ((status & ALTERA_AVALON_UART_STATUS_RRDY_MSK) == ALTERA_AVALON_UART_STATUS_RRDY_MSK)  //接收字符准备好中断状态
    {

    }
    if ((status & ALTERA_AVALON_UART_STATUS_TRDY_MSK) == ALTERA_AVALON_UART_STATUS_TRDY_MSK)  //传送准备好中断
 40002a4:	e0bfff17 	ldw	r2,-4(fp)
 40002a8:	1080100c 	andi	r2,r2,64
 40002ac:	1005003a 	cmpeq	r2,r2,zero
 40002b0:	1000121e 	bne	r2,zero,40002fc <uart_isr+0x7c>
    {
         if(TxCounter < 12)
 40002b4:	d0a00d17 	ldw	r2,-32716(gp)
 40002b8:	10800308 	cmpgei	r2,r2,12
 40002bc:	10000c1e 	bne	r2,zero,40002f0 <uart_isr+0x70>
         {
            IOWR_ALTERA_AVALON_UART_TXDATA(UART0_BASE,UartTxBuffer[TxCounter]);
 40002c0:	d0e00d17 	ldw	r3,-32716(gp)
 40002c4:	00810074 	movhi	r2,1025
 40002c8:	10a4ae84 	addi	r2,r2,-27974
 40002cc:	10c5883a 	add	r2,r2,r3
 40002d0:	10800003 	ldbu	r2,0(r2)
 40002d4:	10c03fcc 	andi	r3,r2,255
 40002d8:	00870104 	movi	r2,7172
 40002dc:	10c00035 	stwio	r3,0(r2)
            TxCounter++;
 40002e0:	d0a00d17 	ldw	r2,-32716(gp)
 40002e4:	10800044 	addi	r2,r2,1
 40002e8:	d0a00d15 	stw	r2,-32716(gp)
 40002ec:	00000306 	br	40002fc <uart_isr+0x7c>
         }
         else  //发送完成
         {
            TxCounter=0;
 40002f0:	d0200d15 	stw	zero,-32716(gp)
            IOWR_ALTERA_AVALON_UART_CONTROL(UART0_BASE,0);  //关闭串口所有中断
 40002f4:	00870304 	movi	r2,7180
 40002f8:	10000035 	stwio	zero,0(r2)
           // IOWR_ALTERA_AVALON_UART_CONTROL(UART0_BASE,ALTERA_AVALON_UART_CONTROL_RRDY_MSK);   //打开允许接收字符准备好中断
         }
    }
}
 40002fc:	e037883a 	mov	sp,fp
 4000300:	df000017 	ldw	fp,0(sp)
 4000304:	dec00104 	addi	sp,sp,4
 4000308:	f800283a 	ret

0400030c <UartInit>:

void UartInit(void)  //串口初始化
{
 400030c:	defffe04 	addi	sp,sp,-8
 4000310:	dfc00115 	stw	ra,4(sp)
 4000314:	df000015 	stw	fp,0(sp)
 4000318:	d839883a 	mov	fp,sp
    SetBaudrate(9600);  //波特率9600
 400031c:	01096004 	movi	r4,9600
 4000320:	40001fc0 	call	40001fc <SetBaudrate>
    IOWR_ALTERA_AVALON_UART_CONTROL(UART0_BASE, 0);
 4000324:	00870304 	movi	r2,7180
 4000328:	10000035 	stwio	zero,0(r2)
   // IOWR_ALTERA_AVALON_UART_CONTROL(UART0_BASE, ALTERA_AVALON_UART_CONTROL_RRDY_MSK);   //打开允许接收字符准备好中断
    IOWR_ALTERA_AVALON_UART_STATUS(UART0_BASE, 0);   //清状态寄存器
 400032c:	00870204 	movi	r2,7176
 4000330:	10000035 	stwio	zero,0(r2)
    alt_irq_register(UART0_IRQ, (void *)0, uart_isr);  //注册中断
 4000334:	01000044 	movi	r4,1
 4000338:	000b883a 	mov	r5,zero
 400033c:	01810034 	movhi	r6,1024
 4000340:	3180a004 	addi	r6,r6,640
 4000344:	40024600 	call	4002460 <alt_irq_register>
}
 4000348:	e037883a 	mov	sp,fp
 400034c:	dfc00117 	ldw	ra,4(sp)
 4000350:	df000017 	ldw	fp,0(sp)
 4000354:	dec00204 	addi	sp,sp,8
 4000358:	f800283a 	ret

0400035c <isr_timer0>:


/*定时器配置*/
void isr_timer0()
{
 400035c:	deffff04 	addi	sp,sp,-4
 4000360:	df000015 	stw	fp,0(sp)
 4000364:	d839883a 	mov	fp,sp
    //IOWR_ALTERA_AVALON_UART_CONTROL(UART0_BASE,0);
    //IOWR_ALTERA_AVALON_UART_TXDATA(UART0_BASE, '\n');
	IOWR_ALTERA_AVALON_TIMER_STATUS(TIMER0_BASE, 0x00);       //清楚timer0中断标志寄存器
 4000368:	00870804 	movi	r2,7200
 400036c:	10000035 	stwio	zero,0(r2)
    IOWR_ALTERA_AVALON_UART_CONTROL(UART0_BASE,ALTERA_AVALON_UART_CONTROL_TRDY_MSK);
 4000370:	00c70304 	movi	r3,7180
 4000374:	00801004 	movi	r2,64
 4000378:	18800035 	stwio	r2,0(r3)
}
 400037c:	e037883a 	mov	sp,fp
 4000380:	df000017 	ldw	fp,0(sp)
 4000384:	dec00104 	addi	sp,sp,4
 4000388:	f800283a 	ret

0400038c <TimerInit>:
void TimerInit(void)
{
 400038c:	defffe04 	addi	sp,sp,-8
 4000390:	dfc00115 	stw	ra,4(sp)
 4000394:	df000015 	stw	fp,0(sp)
 4000398:	d839883a 	mov	fp,sp
     IOWR_ALTERA_AVALON_TIMER_STATUS(TIMER0_BASE, 0x00);       //清楚timer0中断标志寄存器
 400039c:	00870804 	movi	r2,7200
 40003a0:	10000035 	stwio	zero,0(r2)
     IOWR_ALTERA_AVALON_TIMER_PERIODL(TIMER0_BASE,50000000);   //设置timer0周期
 40003a4:	00c70a04 	movi	r3,7208
 40003a8:	0080bef4 	movhi	r2,763
 40003ac:	10bc2004 	addi	r2,r2,-3968
 40003b0:	18800035 	stwio	r2,0(r3)
     IOWR_ALTERA_AVALON_TIMER_PERIODH(TIMER0_BASE, 50000000 >> 16);
 40003b4:	00c70b04 	movi	r3,7212
 40003b8:	0080be84 	movi	r2,762
 40003bc:	18800035 	stwio	r2,0(r3)
     IOWR_ALTERA_AVALON_TIMER_CONTROL(TIMER0_BASE, 0x07);      //允许timer0中断
 40003c0:	00c70904 	movi	r3,7204
 40003c4:	008001c4 	movi	r2,7
 40003c8:	18800035 	stwio	r2,0(r3)
     alt_irq_register(TIMER0_IRQ, (void *)0, isr_timer0);      //注册timer0中断
 40003cc:	01000084 	movi	r4,2
 40003d0:	000b883a 	mov	r5,zero
 40003d4:	01810034 	movhi	r6,1024
 40003d8:	3180d704 	addi	r6,r6,860
 40003dc:	40024600 	call	4002460 <alt_irq_register>
}
 40003e0:	e037883a 	mov	sp,fp
 40003e4:	dfc00117 	ldw	ra,4(sp)
 40003e8:	df000017 	ldw	fp,0(sp)
 40003ec:	dec00204 	addi	sp,sp,8
 40003f0:	f800283a 	ret

040003f4 <main>:

int main()
{
 40003f4:	defffe04 	addi	sp,sp,-8
 40003f8:	dfc00115 	stw	ra,4(sp)
 40003fc:	df000015 	stw	fp,0(sp)
 4000400:	d839883a 	mov	fp,sp
    UartInit();   //串口初始化
 4000404:	400030c0 	call	400030c <UartInit>
    TimerInit();  //定时器初始化
 4000408:	400038c0 	call	400038c <TimerInit>
    OLED_Init();  //OLED初始化
 400040c:	400155c0 	call	400155c <OLED_Init>
    while(1);
 4000410:	003fff06 	br	4000410 <main+0x1c>

04000414 <Write_Command>:
//=-=-=-=-=-=-=-=-=-=-=-=-=-=-=-=-=-=-=-=-=-=-=-=-=-=-=-=-=-=-=-=-=-=-=-=-=-=-=-=
//  Patterns
//=-=-=-=-=-=-=-=-=-=-=-=-=-=-=-=-=-=-=-=-=-=-=-=-=-=-=-=-=-=-=-=-=-=-=-=-=-=-=-=

void Write_Command(unsigned char Command)   //OLED_IP WRITE COMMAND
{
 4000414:	defffe04 	addi	sp,sp,-8
 4000418:	df000115 	stw	fp,4(sp)
 400041c:	df000104 	addi	fp,sp,4
 4000420:	e13fff05 	stb	r4,-4(fp)
    IOWR(OLED_BASE,0,Command);
 4000424:	e0ffff03 	ldbu	r3,-4(fp)
 4000428:	00820004 	movi	r2,2048
 400042c:	10c00035 	stwio	r3,0(r2)
}
 4000430:	e037883a 	mov	sp,fp
 4000434:	df000017 	ldw	fp,0(sp)
 4000438:	dec00104 	addi	sp,sp,4
 400043c:	f800283a 	ret

04000440 <Write_Data>:

void Write_Data(unsigned char  data)   //OLED_IP WRITE DATA
{
 4000440:	defffe04 	addi	sp,sp,-8
 4000444:	df000115 	stw	fp,4(sp)
 4000448:	df000104 	addi	fp,sp,4
 400044c:	e13fff05 	stb	r4,-4(fp)
   IOWR(OLED_BASE,1, data);
 4000450:	e0ffff03 	ldbu	r3,-4(fp)
 4000454:	00820104 	movi	r2,2052
 4000458:	10c00035 	stwio	r3,0(r2)
}
 400045c:	e037883a 	mov	sp,fp
 4000460:	df000017 	ldw	fp,0(sp)
 4000464:	dec00104 	addi	sp,sp,4
 4000468:	f800283a 	ret

0400046c <uDelay>:


void uDelay(unsigned char l)
{
 400046c:	defffd04 	addi	sp,sp,-12
 4000470:	dfc00215 	stw	ra,8(sp)
 4000474:	df000115 	stw	fp,4(sp)
 4000478:	df000104 	addi	fp,sp,4
 400047c:	e13fff05 	stb	r4,-4(fp)
    while(l--)
 4000480:	00000206 	br	400048c <uDelay+0x20>
    usleep(1);
 4000484:	01000044 	movi	r4,1
 4000488:	400268c0 	call	400268c <usleep>
}


void uDelay(unsigned char l)
{
    while(l--)
 400048c:	e0bfff03 	ldbu	r2,-4(fp)
 4000490:	10bfffc4 	addi	r2,r2,-1
 4000494:	e0bfff05 	stb	r2,-4(fp)
 4000498:	e0bfff03 	ldbu	r2,-4(fp)
 400049c:	10803fd8 	cmpnei	r2,r2,255
 40004a0:	103ff81e 	bne	r2,zero,4000484 <uDelay+0x18>
    usleep(1);
    
}
 40004a4:	e037883a 	mov	sp,fp
 40004a8:	dfc00117 	ldw	ra,4(sp)
 40004ac:	df000017 	ldw	fp,0(sp)
 40004b0:	dec00204 	addi	sp,sp,8
 40004b4:	f800283a 	ret

040004b8 <Delay>:


void Delay(unsigned char n)
{
 40004b8:	defffc04 	addi	sp,sp,-16
 40004bc:	dfc00315 	stw	ra,12(sp)
 40004c0:	df000215 	stw	fp,8(sp)
 40004c4:	df000204 	addi	fp,sp,8
 40004c8:	e13fff05 	stb	r4,-4(fp)
unsigned char i,j,k;

    for(k=0;k<n;k++)
 40004cc:	e03ffe05 	stb	zero,-8(fp)
 40004d0:	00001506 	br	4000528 <Delay+0x70>
    {
        for(i=0;i<131;i++)
 40004d4:	e03ffe85 	stb	zero,-6(fp)
 40004d8:	00000d06 	br	4000510 <Delay+0x58>
        {
            for(j=0;j<15;j++)
 40004dc:	e03ffe45 	stb	zero,-7(fp)
 40004e0:	00000506 	br	40004f8 <Delay+0x40>
            {
                uDelay(203);    
 40004e4:	010032c4 	movi	r4,203
 40004e8:	400046c0 	call	400046c <uDelay>

    for(k=0;k<n;k++)
    {
        for(i=0;i<131;i++)
        {
            for(j=0;j<15;j++)
 40004ec:	e0bffe43 	ldbu	r2,-7(fp)
 40004f0:	10800044 	addi	r2,r2,1
 40004f4:	e0bffe45 	stb	r2,-7(fp)
 40004f8:	e0bffe43 	ldbu	r2,-7(fp)
 40004fc:	108003f0 	cmpltui	r2,r2,15
 4000500:	103ff81e 	bne	r2,zero,40004e4 <Delay+0x2c>
{
unsigned char i,j,k;

    for(k=0;k<n;k++)
    {
        for(i=0;i<131;i++)
 4000504:	e0bffe83 	ldbu	r2,-6(fp)
 4000508:	10800044 	addi	r2,r2,1
 400050c:	e0bffe85 	stb	r2,-6(fp)
 4000510:	e0bffe83 	ldbu	r2,-6(fp)
 4000514:	108020f0 	cmpltui	r2,r2,131
 4000518:	103ff01e 	bne	r2,zero,40004dc <Delay+0x24>

void Delay(unsigned char n)
{
unsigned char i,j,k;

    for(k=0;k<n;k++)
 400051c:	e0bffe03 	ldbu	r2,-8(fp)
 4000520:	10800044 	addi	r2,r2,1
 4000524:	e0bffe05 	stb	r2,-8(fp)
 4000528:	e0fffe03 	ldbu	r3,-8(fp)
 400052c:	e0bfff03 	ldbu	r2,-4(fp)
 4000530:	18bfe836 	bltu	r3,r2,40004d4 <Delay+0x1c>
            {
                uDelay(203);    
            }
        }
    }
}
 4000534:	e037883a 	mov	sp,fp
 4000538:	dfc00117 	ldw	ra,4(sp)
 400053c:	df000017 	ldw	fp,0(sp)
 4000540:	dec00204 	addi	sp,sp,8
 4000544:	f800283a 	ret

04000548 <Set_Start_Column>:

//-=-=-=-=-=-=-=-=-=-=-=-=-=-=-=-=-=-=-=-=-=-=-=-=-=-=-=-=-=-=-=-=-=-=-=
//  Instruction Setting
//-=-=-=-=-=-=-=-=-=-=-=-=-=-=-=-=-=-=-=-=-=-=-=-=-=-=-=-=-=-=-=-=-=-=-=
void Set_Start_Column(unsigned char d)
{
 4000548:	defffd04 	addi	sp,sp,-12
 400054c:	dfc00215 	stw	ra,8(sp)
 4000550:	df000115 	stw	fp,4(sp)
 4000554:	df000104 	addi	fp,sp,4
 4000558:	e13fff05 	stb	r4,-4(fp)
    Write_Command(0x00+d%16);       // Set Lower Column Start Address for Page Addressing Mode
 400055c:	e0bfff03 	ldbu	r2,-4(fp)
 4000560:	110003cc 	andi	r4,r2,15
 4000564:	40004140 	call	4000414 <Write_Command>
                        //   Default => 0x00
    Write_Command(0x10+d/16);       // Set Higher Column Start Address for Page Addressing Mode
 4000568:	e0bfff03 	ldbu	r2,-4(fp)
 400056c:	1004d13a 	srli	r2,r2,4
 4000570:	10800404 	addi	r2,r2,16
 4000574:	11003fcc 	andi	r4,r2,255
 4000578:	40004140 	call	4000414 <Write_Command>
                        //   Default => 0x10
}
 400057c:	e037883a 	mov	sp,fp
 4000580:	dfc00117 	ldw	ra,4(sp)
 4000584:	df000017 	ldw	fp,0(sp)
 4000588:	dec00204 	addi	sp,sp,8
 400058c:	f800283a 	ret

04000590 <Set_Addressing_Mode>:


void Set_Addressing_Mode(unsigned char d)
{
 4000590:	defffd04 	addi	sp,sp,-12
 4000594:	dfc00215 	stw	ra,8(sp)
 4000598:	df000115 	stw	fp,4(sp)
 400059c:	df000104 	addi	fp,sp,4
 40005a0:	e13fff05 	stb	r4,-4(fp)
    Write_Command(0x20);            // Set Memory Addressing Mode
 40005a4:	01000804 	movi	r4,32
 40005a8:	40004140 	call	4000414 <Write_Command>
    Write_Command(d);           //   Default => 0x02
 40005ac:	e13fff03 	ldbu	r4,-4(fp)
 40005b0:	40004140 	call	4000414 <Write_Command>
                        //     0x00 => Horizontal Addressing Mode
                        //     0x01 => Vertical Addressing Mode
                        //     0x02 => Page Addressing Mode
}
 40005b4:	e037883a 	mov	sp,fp
 40005b8:	dfc00117 	ldw	ra,4(sp)
 40005bc:	df000017 	ldw	fp,0(sp)
 40005c0:	dec00204 	addi	sp,sp,8
 40005c4:	f800283a 	ret

040005c8 <Set_Column_Address>:


void Set_Column_Address(unsigned char a, unsigned char b)
{
 40005c8:	defffc04 	addi	sp,sp,-16
 40005cc:	dfc00315 	stw	ra,12(sp)
 40005d0:	df000215 	stw	fp,8(sp)
 40005d4:	df000204 	addi	fp,sp,8
 40005d8:	e13ffe05 	stb	r4,-8(fp)
 40005dc:	e17fff05 	stb	r5,-4(fp)
    Write_Command(0x21);            // Set Column Address
 40005e0:	01000844 	movi	r4,33
 40005e4:	40004140 	call	4000414 <Write_Command>
    Write_Command(a);           //   Default => 0x00 (Column Start Address)
 40005e8:	e13ffe03 	ldbu	r4,-8(fp)
 40005ec:	40004140 	call	4000414 <Write_Command>
    Write_Command(b);           //   Default => 0x83 (Column End Address)
 40005f0:	e13fff03 	ldbu	r4,-4(fp)
 40005f4:	40004140 	call	4000414 <Write_Command>
}
 40005f8:	e037883a 	mov	sp,fp
 40005fc:	dfc00117 	ldw	ra,4(sp)
 4000600:	df000017 	ldw	fp,0(sp)
 4000604:	dec00204 	addi	sp,sp,8
 4000608:	f800283a 	ret

0400060c <Set_Page_Address>:


void Set_Page_Address(unsigned char a, unsigned char b)
{
 400060c:	defffc04 	addi	sp,sp,-16
 4000610:	dfc00315 	stw	ra,12(sp)
 4000614:	df000215 	stw	fp,8(sp)
 4000618:	df000204 	addi	fp,sp,8
 400061c:	e13ffe05 	stb	r4,-8(fp)
 4000620:	e17fff05 	stb	r5,-4(fp)
    Write_Command(0x22);            // Set Page Address
 4000624:	01000884 	movi	r4,34
 4000628:	40004140 	call	4000414 <Write_Command>
    Write_Command(a);           //   Default => 0x00 (Page Start Address)
 400062c:	e13ffe03 	ldbu	r4,-8(fp)
 4000630:	40004140 	call	4000414 <Write_Command>
    Write_Command(b);           //   Default => 0x07 (Page End Address)
 4000634:	e13fff03 	ldbu	r4,-4(fp)
 4000638:	40004140 	call	4000414 <Write_Command>
}
 400063c:	e037883a 	mov	sp,fp
 4000640:	dfc00117 	ldw	ra,4(sp)
 4000644:	df000017 	ldw	fp,0(sp)
 4000648:	dec00204 	addi	sp,sp,8
 400064c:	f800283a 	ret

04000650 <Set_Start_Line>:


void Set_Start_Line(unsigned char d)
{
 4000650:	defffd04 	addi	sp,sp,-12
 4000654:	dfc00215 	stw	ra,8(sp)
 4000658:	df000115 	stw	fp,4(sp)
 400065c:	df000104 	addi	fp,sp,4
 4000660:	e13fff05 	stb	r4,-4(fp)
    Write_Command(0x40|d);          // Set Display Start Line
 4000664:	e0bfff03 	ldbu	r2,-4(fp)
 4000668:	10801014 	ori	r2,r2,64
 400066c:	11003fcc 	andi	r4,r2,255
 4000670:	40004140 	call	4000414 <Write_Command>
                        //   Default => 0x40 (0x00)
}
 4000674:	e037883a 	mov	sp,fp
 4000678:	dfc00117 	ldw	ra,4(sp)
 400067c:	df000017 	ldw	fp,0(sp)
 4000680:	dec00204 	addi	sp,sp,8
 4000684:	f800283a 	ret

04000688 <Set_Contrast_Control>:


void Set_Contrast_Control(unsigned char d)
{
 4000688:	defffd04 	addi	sp,sp,-12
 400068c:	dfc00215 	stw	ra,8(sp)
 4000690:	df000115 	stw	fp,4(sp)
 4000694:	df000104 	addi	fp,sp,4
 4000698:	e13fff05 	stb	r4,-4(fp)
    Write_Command(0x81);            // Set Contrast Control for Bank 0
 400069c:	01002044 	movi	r4,129
 40006a0:	40004140 	call	4000414 <Write_Command>
    Write_Command(d);           //   Default => 0x80
 40006a4:	e13fff03 	ldbu	r4,-4(fp)
 40006a8:	40004140 	call	4000414 <Write_Command>
}
 40006ac:	e037883a 	mov	sp,fp
 40006b0:	dfc00117 	ldw	ra,4(sp)
 40006b4:	df000017 	ldw	fp,0(sp)
 40006b8:	dec00204 	addi	sp,sp,8
 40006bc:	f800283a 	ret

040006c0 <Set_Area_Brightness>:


void Set_Area_Brightness(unsigned char d)
{
 40006c0:	defffd04 	addi	sp,sp,-12
 40006c4:	dfc00215 	stw	ra,8(sp)
 40006c8:	df000115 	stw	fp,4(sp)
 40006cc:	df000104 	addi	fp,sp,4
 40006d0:	e13fff05 	stb	r4,-4(fp)
    Write_Command(0x82);            // Set Brightness for Area Color Banks
 40006d4:	01002084 	movi	r4,130
 40006d8:	40004140 	call	4000414 <Write_Command>
    Write_Command(d);           //   Default => 0x80
 40006dc:	e13fff03 	ldbu	r4,-4(fp)
 40006e0:	40004140 	call	4000414 <Write_Command>
}
 40006e4:	e037883a 	mov	sp,fp
 40006e8:	dfc00117 	ldw	ra,4(sp)
 40006ec:	df000017 	ldw	fp,0(sp)
 40006f0:	dec00204 	addi	sp,sp,8
 40006f4:	f800283a 	ret

040006f8 <Set_Segment_Remap>:


void Set_Segment_Remap(unsigned char d)
{
 40006f8:	defffd04 	addi	sp,sp,-12
 40006fc:	dfc00215 	stw	ra,8(sp)
 4000700:	df000115 	stw	fp,4(sp)
 4000704:	df000104 	addi	fp,sp,4
 4000708:	e13fff05 	stb	r4,-4(fp)
    Write_Command(0xA0|d);          // Set Segment Re-Map
 400070c:	e0ffff03 	ldbu	r3,-4(fp)
 4000710:	00bfe804 	movi	r2,-96
 4000714:	1884b03a 	or	r2,r3,r2
 4000718:	11003fcc 	andi	r4,r2,255
 400071c:	40004140 	call	4000414 <Write_Command>
                        //   Default => 0xA0
                        //     0xA0 (0x00) => Column Address 0 Mapped to SEG0
                        //     0xA1 (0x01) => Column Address 0 Mapped to SEG131
}
 4000720:	e037883a 	mov	sp,fp
 4000724:	dfc00117 	ldw	ra,4(sp)
 4000728:	df000017 	ldw	fp,0(sp)
 400072c:	dec00204 	addi	sp,sp,8
 4000730:	f800283a 	ret

04000734 <Set_Entire_Display>:


void Set_Entire_Display(unsigned char d)
{
 4000734:	defffd04 	addi	sp,sp,-12
 4000738:	dfc00215 	stw	ra,8(sp)
 400073c:	df000115 	stw	fp,4(sp)
 4000740:	df000104 	addi	fp,sp,4
 4000744:	e13fff05 	stb	r4,-4(fp)
    Write_Command(0xA4|d);          // Set Entire Display On / Off
 4000748:	e0ffff03 	ldbu	r3,-4(fp)
 400074c:	00bfe904 	movi	r2,-92
 4000750:	1884b03a 	or	r2,r3,r2
 4000754:	11003fcc 	andi	r4,r2,255
 4000758:	40004140 	call	4000414 <Write_Command>
                        //   Default => 0xA4
                        //     0xA4 (0x00) => Normal Display
                        //     0xA5 (0x01) => Entire Display On
}
 400075c:	e037883a 	mov	sp,fp
 4000760:	dfc00117 	ldw	ra,4(sp)
 4000764:	df000017 	ldw	fp,0(sp)
 4000768:	dec00204 	addi	sp,sp,8
 400076c:	f800283a 	ret

04000770 <Set_Inverse_Display>:


void Set_Inverse_Display(unsigned char d)
{
 4000770:	defffd04 	addi	sp,sp,-12
 4000774:	dfc00215 	stw	ra,8(sp)
 4000778:	df000115 	stw	fp,4(sp)
 400077c:	df000104 	addi	fp,sp,4
 4000780:	e13fff05 	stb	r4,-4(fp)
    Write_Command(0xA6|d);          // Set Inverse Display On/Off
 4000784:	e0ffff03 	ldbu	r3,-4(fp)
 4000788:	00bfe984 	movi	r2,-90
 400078c:	1884b03a 	or	r2,r3,r2
 4000790:	11003fcc 	andi	r4,r2,255
 4000794:	40004140 	call	4000414 <Write_Command>
                        //   Default => 0xA6
                        //     0xA6 (0x00) => Normal Display
                        //     0xA7 (0x01) => Inverse Display On
}
 4000798:	e037883a 	mov	sp,fp
 400079c:	dfc00117 	ldw	ra,4(sp)
 40007a0:	df000017 	ldw	fp,0(sp)
 40007a4:	dec00204 	addi	sp,sp,8
 40007a8:	f800283a 	ret

040007ac <Set_Multiplex_Ratio>:


void Set_Multiplex_Ratio(unsigned char d)
{
 40007ac:	defffd04 	addi	sp,sp,-12
 40007b0:	dfc00215 	stw	ra,8(sp)
 40007b4:	df000115 	stw	fp,4(sp)
 40007b8:	df000104 	addi	fp,sp,4
 40007bc:	e13fff05 	stb	r4,-4(fp)
    Write_Command(0xA8);            // Set Multiplex Ratio
 40007c0:	01002a04 	movi	r4,168
 40007c4:	40004140 	call	4000414 <Write_Command>
    Write_Command(d);           //   Default => 0x3F (1/64 Duty)
 40007c8:	e13fff03 	ldbu	r4,-4(fp)
 40007cc:	40004140 	call	4000414 <Write_Command>
}
 40007d0:	e037883a 	mov	sp,fp
 40007d4:	dfc00117 	ldw	ra,4(sp)
 40007d8:	df000017 	ldw	fp,0(sp)
 40007dc:	dec00204 	addi	sp,sp,8
 40007e0:	f800283a 	ret

040007e4 <Set_Dim_Mode>:


void Set_Dim_Mode(unsigned char a, unsigned char b)
{
 40007e4:	defffc04 	addi	sp,sp,-16
 40007e8:	dfc00315 	stw	ra,12(sp)
 40007ec:	df000215 	stw	fp,8(sp)
 40007f0:	df000204 	addi	fp,sp,8
 40007f4:	e13ffe05 	stb	r4,-8(fp)
 40007f8:	e17fff05 	stb	r5,-4(fp)
    Write_Command(0xAB);            // Set Dim Mode Configuration
 40007fc:	01002ac4 	movi	r4,171
 4000800:	40004140 	call	4000414 <Write_Command>
    Write_Command(0X00);            //           => (Dummy Write for First Parameter)
 4000804:	0009883a 	mov	r4,zero
 4000808:	40004140 	call	4000414 <Write_Command>
    Write_Command(a);           //   Default => 0x80 (Contrast Control for Bank 0)
 400080c:	e13ffe03 	ldbu	r4,-8(fp)
 4000810:	40004140 	call	4000414 <Write_Command>
    Write_Command(b);           //   Default => 0x80 (Brightness for Area Color Banks)
 4000814:	e13fff03 	ldbu	r4,-4(fp)
 4000818:	40004140 	call	4000414 <Write_Command>
    Write_Command(0xAC);            // Set Display On in Dim Mode
 400081c:	01002b04 	movi	r4,172
 4000820:	40004140 	call	4000414 <Write_Command>
}
 4000824:	e037883a 	mov	sp,fp
 4000828:	dfc00117 	ldw	ra,4(sp)
 400082c:	df000017 	ldw	fp,0(sp)
 4000830:	dec00204 	addi	sp,sp,8
 4000834:	f800283a 	ret

04000838 <Set_Master_Config>:


void Set_Master_Config(unsigned char d)
{
 4000838:	defffd04 	addi	sp,sp,-12
 400083c:	dfc00215 	stw	ra,8(sp)
 4000840:	df000115 	stw	fp,4(sp)
 4000844:	df000104 	addi	fp,sp,4
 4000848:	e13fff05 	stb	r4,-4(fp)
    Write_Command(0xAD);            // Set Master Configuration
 400084c:	01002b44 	movi	r4,173
 4000850:	40004140 	call	4000414 <Write_Command>
    Write_Command(0x8E|d);          //   Default => 0x8E
 4000854:	e0ffff03 	ldbu	r3,-4(fp)
 4000858:	00bfe384 	movi	r2,-114
 400085c:	1884b03a 	or	r2,r3,r2
 4000860:	11003fcc 	andi	r4,r2,255
 4000864:	40004140 	call	4000414 <Write_Command>
                        //     0x8E (0x00) => Select External VCC Supply
                        //     0x8F (0x01) => Select Internal DC/DC Voltage Converter
}
 4000868:	e037883a 	mov	sp,fp
 400086c:	dfc00117 	ldw	ra,4(sp)
 4000870:	df000017 	ldw	fp,0(sp)
 4000874:	dec00204 	addi	sp,sp,8
 4000878:	f800283a 	ret

0400087c <Set_Display_On_Off>:


void Set_Display_On_Off(unsigned char d)    
{
 400087c:	defffd04 	addi	sp,sp,-12
 4000880:	dfc00215 	stw	ra,8(sp)
 4000884:	df000115 	stw	fp,4(sp)
 4000888:	df000104 	addi	fp,sp,4
 400088c:	e13fff05 	stb	r4,-4(fp)
    Write_Command(0xAE|d);          // Set Display On/Off
 4000890:	e0ffff03 	ldbu	r3,-4(fp)
 4000894:	00bfeb84 	movi	r2,-82
 4000898:	1884b03a 	or	r2,r3,r2
 400089c:	11003fcc 	andi	r4,r2,255
 40008a0:	40004140 	call	4000414 <Write_Command>
                        //   Default => 0xAE
                        //     0xAE (0x00) => Display Off
                        //     0xAF (0x01) => Display On
}
 40008a4:	e037883a 	mov	sp,fp
 40008a8:	dfc00117 	ldw	ra,4(sp)
 40008ac:	df000017 	ldw	fp,0(sp)
 40008b0:	dec00204 	addi	sp,sp,8
 40008b4:	f800283a 	ret

040008b8 <Set_Start_Page>:


void Set_Start_Page(unsigned char d)
{
 40008b8:	defffd04 	addi	sp,sp,-12
 40008bc:	dfc00215 	stw	ra,8(sp)
 40008c0:	df000115 	stw	fp,4(sp)
 40008c4:	df000104 	addi	fp,sp,4
 40008c8:	e13fff05 	stb	r4,-4(fp)
    Write_Command(0xB0|d);          // Set Page Start Address for Page Addressing Mode
 40008cc:	e0ffff03 	ldbu	r3,-4(fp)
 40008d0:	00bfec04 	movi	r2,-80
 40008d4:	1884b03a 	or	r2,r3,r2
 40008d8:	11003fcc 	andi	r4,r2,255
 40008dc:	40004140 	call	4000414 <Write_Command>
                        //   Default => 0xB0 (0x00)
}
 40008e0:	e037883a 	mov	sp,fp
 40008e4:	dfc00117 	ldw	ra,4(sp)
 40008e8:	df000017 	ldw	fp,0(sp)
 40008ec:	dec00204 	addi	sp,sp,8
 40008f0:	f800283a 	ret

040008f4 <Set_Common_Remap>:


void Set_Common_Remap(unsigned char d)
{
 40008f4:	defffd04 	addi	sp,sp,-12
 40008f8:	dfc00215 	stw	ra,8(sp)
 40008fc:	df000115 	stw	fp,4(sp)
 4000900:	df000104 	addi	fp,sp,4
 4000904:	e13fff05 	stb	r4,-4(fp)
    Write_Command(0xC0|d);          // Set COM Output Scan Direction
 4000908:	e0ffff03 	ldbu	r3,-4(fp)
 400090c:	00bff004 	movi	r2,-64
 4000910:	1884b03a 	or	r2,r3,r2
 4000914:	11003fcc 	andi	r4,r2,255
 4000918:	40004140 	call	4000414 <Write_Command>
                        //   Default => 0xC0
                        //     0xC0 (0x00) => Scan from COM0 to 63
                        //     0xC8 (0x08) => Scan from COM63 to 0
}
 400091c:	e037883a 	mov	sp,fp
 4000920:	dfc00117 	ldw	ra,4(sp)
 4000924:	df000017 	ldw	fp,0(sp)
 4000928:	dec00204 	addi	sp,sp,8
 400092c:	f800283a 	ret

04000930 <Set_Display_Offset>:


void Set_Display_Offset(unsigned char d)
{
 4000930:	defffd04 	addi	sp,sp,-12
 4000934:	dfc00215 	stw	ra,8(sp)
 4000938:	df000115 	stw	fp,4(sp)
 400093c:	df000104 	addi	fp,sp,4
 4000940:	e13fff05 	stb	r4,-4(fp)
    Write_Command(0xD3);            // Set Display Offset
 4000944:	010034c4 	movi	r4,211
 4000948:	40004140 	call	4000414 <Write_Command>
    Write_Command(d);           //   Default => 0x00
 400094c:	e13fff03 	ldbu	r4,-4(fp)
 4000950:	40004140 	call	4000414 <Write_Command>
}
 4000954:	e037883a 	mov	sp,fp
 4000958:	dfc00117 	ldw	ra,4(sp)
 400095c:	df000017 	ldw	fp,0(sp)
 4000960:	dec00204 	addi	sp,sp,8
 4000964:	f800283a 	ret

04000968 <Set_Display_Clock>:


void Set_Display_Clock(unsigned char d)
{
 4000968:	defffd04 	addi	sp,sp,-12
 400096c:	dfc00215 	stw	ra,8(sp)
 4000970:	df000115 	stw	fp,4(sp)
 4000974:	df000104 	addi	fp,sp,4
 4000978:	e13fff05 	stb	r4,-4(fp)
    Write_Command(0xD5);            // Set Display Clock Divide Ratio / Oscillator Frequency
 400097c:	01003544 	movi	r4,213
 4000980:	40004140 	call	4000414 <Write_Command>
    Write_Command(d);           //   Default => 0x70
 4000984:	e13fff03 	ldbu	r4,-4(fp)
 4000988:	40004140 	call	4000414 <Write_Command>
                        //     D[3:0] => Display Clock Divider
                        //     D[7:4] => Oscillator Frequency
}
 400098c:	e037883a 	mov	sp,fp
 4000990:	dfc00117 	ldw	ra,4(sp)
 4000994:	df000017 	ldw	fp,0(sp)
 4000998:	dec00204 	addi	sp,sp,8
 400099c:	f800283a 	ret

040009a0 <Set_Area_Color>:


void Set_Area_Color(unsigned char d)
{
 40009a0:	defffd04 	addi	sp,sp,-12
 40009a4:	dfc00215 	stw	ra,8(sp)
 40009a8:	df000115 	stw	fp,4(sp)
 40009ac:	df000104 	addi	fp,sp,4
 40009b0:	e13fff05 	stb	r4,-4(fp)
    Write_Command(0xD8);            // Set Area Color Mode On/Off & Low Power Display Mode
 40009b4:	01003604 	movi	r4,216
 40009b8:	40004140 	call	4000414 <Write_Command>
    Write_Command(d);           //   Default => 0x00 (Monochrome Mode & Normal Power Display Mode)
 40009bc:	e13fff03 	ldbu	r4,-4(fp)
 40009c0:	40004140 	call	4000414 <Write_Command>
}
 40009c4:	e037883a 	mov	sp,fp
 40009c8:	dfc00117 	ldw	ra,4(sp)
 40009cc:	df000017 	ldw	fp,0(sp)
 40009d0:	dec00204 	addi	sp,sp,8
 40009d4:	f800283a 	ret

040009d8 <Set_Precharge_Period>:


void Set_Precharge_Period(unsigned char d)
{
 40009d8:	defffd04 	addi	sp,sp,-12
 40009dc:	dfc00215 	stw	ra,8(sp)
 40009e0:	df000115 	stw	fp,4(sp)
 40009e4:	df000104 	addi	fp,sp,4
 40009e8:	e13fff05 	stb	r4,-4(fp)
    Write_Command(0xD9);            // Set Pre-Charge Period
 40009ec:	01003644 	movi	r4,217
 40009f0:	40004140 	call	4000414 <Write_Command>
    Write_Command(d);           //   Default => 0x22 (2 Display Clocks [Phase 2] / 2 Display Clocks [Phase 1])
 40009f4:	e13fff03 	ldbu	r4,-4(fp)
 40009f8:	40004140 	call	4000414 <Write_Command>
                        //     D[3:0] => Phase 1 Period in 1~15 Display Clocks
                        //     D[7:4] => Phase 2 Period in 1~15 Display Clocks
}
 40009fc:	e037883a 	mov	sp,fp
 4000a00:	dfc00117 	ldw	ra,4(sp)
 4000a04:	df000017 	ldw	fp,0(sp)
 4000a08:	dec00204 	addi	sp,sp,8
 4000a0c:	f800283a 	ret

04000a10 <Set_Common_Config>:


void Set_Common_Config(unsigned char d)
{
 4000a10:	defffd04 	addi	sp,sp,-12
 4000a14:	dfc00215 	stw	ra,8(sp)
 4000a18:	df000115 	stw	fp,4(sp)
 4000a1c:	df000104 	addi	fp,sp,4
 4000a20:	e13fff05 	stb	r4,-4(fp)
    Write_Command(0xDA);            // Set COM Pins Hardware Configuration
 4000a24:	01003684 	movi	r4,218
 4000a28:	40004140 	call	4000414 <Write_Command>
    Write_Command(0x02|d);          //   Default => 0x12 (0x10)
 4000a2c:	e0bfff03 	ldbu	r2,-4(fp)
 4000a30:	10800094 	ori	r2,r2,2
 4000a34:	11003fcc 	andi	r4,r2,255
 4000a38:	40004140 	call	4000414 <Write_Command>
                        //     Alternative COM Pin Configuration
                        //     Disable COM Left/Right Re-Map
}
 4000a3c:	e037883a 	mov	sp,fp
 4000a40:	dfc00117 	ldw	ra,4(sp)
 4000a44:	df000017 	ldw	fp,0(sp)
 4000a48:	dec00204 	addi	sp,sp,8
 4000a4c:	f800283a 	ret

04000a50 <Set_VCOMH>:


void Set_VCOMH(unsigned char d)
{
 4000a50:	defffd04 	addi	sp,sp,-12
 4000a54:	dfc00215 	stw	ra,8(sp)
 4000a58:	df000115 	stw	fp,4(sp)
 4000a5c:	df000104 	addi	fp,sp,4
 4000a60:	e13fff05 	stb	r4,-4(fp)
    Write_Command(0xDB);            // Set VCOMH Deselect Level
 4000a64:	010036c4 	movi	r4,219
 4000a68:	40004140 	call	4000414 <Write_Command>
    Write_Command(d);           //   Default => 0x34 (0.77*VCC)
 4000a6c:	e13fff03 	ldbu	r4,-4(fp)
 4000a70:	40004140 	call	4000414 <Write_Command>
}
 4000a74:	e037883a 	mov	sp,fp
 4000a78:	dfc00117 	ldw	ra,4(sp)
 4000a7c:	df000017 	ldw	fp,0(sp)
 4000a80:	dec00204 	addi	sp,sp,8
 4000a84:	f800283a 	ret

04000a88 <Set_Read_Modify_Write>:


void Set_Read_Modify_Write(unsigned char d)
{
 4000a88:	defffd04 	addi	sp,sp,-12
 4000a8c:	dfc00215 	stw	ra,8(sp)
 4000a90:	df000115 	stw	fp,4(sp)
 4000a94:	df000104 	addi	fp,sp,4
 4000a98:	e13fff05 	stb	r4,-4(fp)
    Write_Command(0xE0|d);          // Set Read Modify Write Mode
 4000a9c:	e0ffff03 	ldbu	r3,-4(fp)
 4000aa0:	00bff804 	movi	r2,-32
 4000aa4:	1884b03a 	or	r2,r3,r2
 4000aa8:	11003fcc 	andi	r4,r2,255
 4000aac:	40004140 	call	4000414 <Write_Command>
                        //   Default => 0xE0
                        //     0xE0 (0x00) => Enter Read Modify Write
                        //     0xEE (0x0E) => Exit Read Modify Write
}
 4000ab0:	e037883a 	mov	sp,fp
 4000ab4:	dfc00117 	ldw	ra,4(sp)
 4000ab8:	df000017 	ldw	fp,0(sp)
 4000abc:	dec00204 	addi	sp,sp,8
 4000ac0:	f800283a 	ret

04000ac4 <Set_NOP>:


void Set_NOP()
{
 4000ac4:	defffe04 	addi	sp,sp,-8
 4000ac8:	dfc00115 	stw	ra,4(sp)
 4000acc:	df000015 	stw	fp,0(sp)
 4000ad0:	d839883a 	mov	fp,sp
    Write_Command(0xE3);            // Command for No Operation
 4000ad4:	010038c4 	movi	r4,227
 4000ad8:	40004140 	call	4000414 <Write_Command>
}
 4000adc:	e037883a 	mov	sp,fp
 4000ae0:	dfc00117 	ldw	ra,4(sp)
 4000ae4:	df000017 	ldw	fp,0(sp)
 4000ae8:	dec00204 	addi	sp,sp,8
 4000aec:	f800283a 	ret

04000af0 <Fill_RAM>:

//-=-=-=-=-=-=-=-=-=-=-=-=-=-=-=-=-=-=-=-=-=-=-=-=-=-=-=-=-=-=-=-=-=-=-=
//  Show Regular Pattern (Full Screen)
//-=-=-=-=-=-=-=-=-=-=-=-=-=-=-=-=-=-=-=-=-=-=-=-=-=-=-=-=-=-=-=-=-=-=-=
void Fill_RAM(unsigned char Data)
{
 4000af0:	defffc04 	addi	sp,sp,-16
 4000af4:	dfc00315 	stw	ra,12(sp)
 4000af8:	df000215 	stw	fp,8(sp)
 4000afc:	df000204 	addi	fp,sp,8
 4000b00:	e13fff05 	stb	r4,-4(fp)
unsigned char i,j;

    for(i=0;i<8;i++)
 4000b04:	e03ffe45 	stb	zero,-7(fp)
 4000b08:	00001106 	br	4000b50 <Fill_RAM+0x60>
    {
        Set_Start_Page(i);
 4000b0c:	e13ffe43 	ldbu	r4,-7(fp)
 4000b10:	40008b80 	call	40008b8 <Set_Start_Page>
        Set_Start_Column(0x00);
 4000b14:	0009883a 	mov	r4,zero
 4000b18:	40005480 	call	4000548 <Set_Start_Column>

        for(j=0;j<132;j++)
 4000b1c:	e03ffe05 	stb	zero,-8(fp)
 4000b20:	00000506 	br	4000b38 <Fill_RAM+0x48>
        {
            Write_Data(Data);
 4000b24:	e13fff03 	ldbu	r4,-4(fp)
 4000b28:	40004400 	call	4000440 <Write_Data>
    for(i=0;i<8;i++)
    {
        Set_Start_Page(i);
        Set_Start_Column(0x00);

        for(j=0;j<132;j++)
 4000b2c:	e0bffe03 	ldbu	r2,-8(fp)
 4000b30:	10800044 	addi	r2,r2,1
 4000b34:	e0bffe05 	stb	r2,-8(fp)
 4000b38:	e0bffe03 	ldbu	r2,-8(fp)
 4000b3c:	10802130 	cmpltui	r2,r2,132
 4000b40:	103ff81e 	bne	r2,zero,4000b24 <Fill_RAM+0x34>
//-=-=-=-=-=-=-=-=-=-=-=-=-=-=-=-=-=-=-=-=-=-=-=-=-=-=-=-=-=-=-=-=-=-=-=
void Fill_RAM(unsigned char Data)
{
unsigned char i,j;

    for(i=0;i<8;i++)
 4000b44:	e0bffe43 	ldbu	r2,-7(fp)
 4000b48:	10800044 	addi	r2,r2,1
 4000b4c:	e0bffe45 	stb	r2,-7(fp)
 4000b50:	e0bffe43 	ldbu	r2,-7(fp)
 4000b54:	10800230 	cmpltui	r2,r2,8
 4000b58:	103fec1e 	bne	r2,zero,4000b0c <Fill_RAM+0x1c>
        for(j=0;j<132;j++)
        {
            Write_Data(Data);
        }
    }
}
 4000b5c:	e037883a 	mov	sp,fp
 4000b60:	dfc00117 	ldw	ra,4(sp)
 4000b64:	df000017 	ldw	fp,0(sp)
 4000b68:	dec00204 	addi	sp,sp,8
 4000b6c:	f800283a 	ret

04000b70 <Fill_Block>:
//    b: End Page
//    c: Start Column
//    d: Total Columns
//-=-=-=-=-=-=-=-=-=-=-=-=-=-=-=-=-=-=-=-=-=-=-=-=-=-=-=-=-=-=-=-=-=-=-=
void Fill_Block(unsigned char Data, unsigned char a, unsigned char b, unsigned char c, unsigned char d)
{
 4000b70:	defff804 	addi	sp,sp,-32
 4000b74:	dfc00715 	stw	ra,28(sp)
 4000b78:	df000615 	stw	fp,24(sp)
 4000b7c:	df000604 	addi	fp,sp,24
 4000b80:	e0800217 	ldw	r2,8(fp)
 4000b84:	e13ffb05 	stb	r4,-20(fp)
 4000b88:	e17ffc05 	stb	r5,-16(fp)
 4000b8c:	e1bffd05 	stb	r6,-12(fp)
 4000b90:	e1fffe05 	stb	r7,-8(fp)
 4000b94:	e0bfff05 	stb	r2,-4(fp)
unsigned char i,j;
    
    for(i=a;i<(b+1);i++)
 4000b98:	e0bffc03 	ldbu	r2,-16(fp)
 4000b9c:	e0bffa45 	stb	r2,-23(fp)
 4000ba0:	00001106 	br	4000be8 <Fill_Block+0x78>
    {
        Set_Start_Page(i);
 4000ba4:	e13ffa43 	ldbu	r4,-23(fp)
 4000ba8:	40008b80 	call	40008b8 <Set_Start_Page>
        Set_Start_Column(c);
 4000bac:	e13ffe03 	ldbu	r4,-8(fp)
 4000bb0:	40005480 	call	4000548 <Set_Start_Column>

        for(j=0;j<d;j++)
 4000bb4:	e03ffa05 	stb	zero,-24(fp)
 4000bb8:	00000506 	br	4000bd0 <Fill_Block+0x60>
        {
            Write_Data(Data);
 4000bbc:	e13ffb03 	ldbu	r4,-20(fp)
 4000bc0:	40004400 	call	4000440 <Write_Data>
    for(i=a;i<(b+1);i++)
    {
        Set_Start_Page(i);
        Set_Start_Column(c);

        for(j=0;j<d;j++)
 4000bc4:	e0bffa03 	ldbu	r2,-24(fp)
 4000bc8:	10800044 	addi	r2,r2,1
 4000bcc:	e0bffa05 	stb	r2,-24(fp)
 4000bd0:	e0fffa03 	ldbu	r3,-24(fp)
 4000bd4:	e0bfff03 	ldbu	r2,-4(fp)
 4000bd8:	18bff836 	bltu	r3,r2,4000bbc <Fill_Block+0x4c>
//-=-=-=-=-=-=-=-=-=-=-=-=-=-=-=-=-=-=-=-=-=-=-=-=-=-=-=-=-=-=-=-=-=-=-=
void Fill_Block(unsigned char Data, unsigned char a, unsigned char b, unsigned char c, unsigned char d)
{
unsigned char i,j;
    
    for(i=a;i<(b+1);i++)
 4000bdc:	e0bffa43 	ldbu	r2,-23(fp)
 4000be0:	10800044 	addi	r2,r2,1
 4000be4:	e0bffa45 	stb	r2,-23(fp)
 4000be8:	e0bffa43 	ldbu	r2,-23(fp)
 4000bec:	e0fffd03 	ldbu	r3,-12(fp)
 4000bf0:	18c00044 	addi	r3,r3,1
 4000bf4:	10ffeb16 	blt	r2,r3,4000ba4 <Fill_Block+0x34>
        for(j=0;j<d;j++)
        {
            Write_Data(Data);
        }
    }
}
 4000bf8:	e037883a 	mov	sp,fp
 4000bfc:	dfc00117 	ldw	ra,4(sp)
 4000c00:	df000017 	ldw	fp,0(sp)
 4000c04:	dec00204 	addi	sp,sp,8
 4000c08:	f800283a 	ret

04000c0c <Checkerboard>:

//-=-=-=-=-=-=-=-=-=-=-=-=-=-=-=-=-=-=-=-=-=-=-=-=-=-=-=-=-=-=-=-=-=-=-=
//  Show Checkboard (Full Screen)
//-=-=-=-=-=-=-=-=-=-=-=-=-=-=-=-=-=-=-=-=-=-=-=-=-=-=-=-=-=-=-=-=-=-=-=
void Checkerboard()
{
 4000c0c:	defffd04 	addi	sp,sp,-12
 4000c10:	dfc00215 	stw	ra,8(sp)
 4000c14:	df000115 	stw	fp,4(sp)
 4000c18:	df000104 	addi	fp,sp,4
unsigned char i,j;
    
    for(i=0;i<8;i++)
 4000c1c:	e03fff45 	stb	zero,-3(fp)
 4000c20:	00001306 	br	4000c70 <Checkerboard+0x64>
    {
        Set_Start_Page(i);
 4000c24:	e13fff43 	ldbu	r4,-3(fp)
 4000c28:	40008b80 	call	40008b8 <Set_Start_Page>
        Set_Start_Column(0x00);
 4000c2c:	0009883a 	mov	r4,zero
 4000c30:	40005480 	call	4000548 <Set_Start_Column>

        for(j=0;j<66;j++)
 4000c34:	e03fff05 	stb	zero,-4(fp)
 4000c38:	00000706 	br	4000c58 <Checkerboard+0x4c>
        {
            Write_Data(0x55);   //note one write_data updata one line
 4000c3c:	01001544 	movi	r4,85
 4000c40:	40004400 	call	4000440 <Write_Data>
            Write_Data(0xaa);
 4000c44:	01002a84 	movi	r4,170
 4000c48:	40004400 	call	4000440 <Write_Data>
    for(i=0;i<8;i++)
    {
        Set_Start_Page(i);
        Set_Start_Column(0x00);

        for(j=0;j<66;j++)
 4000c4c:	e0bfff03 	ldbu	r2,-4(fp)
 4000c50:	10800044 	addi	r2,r2,1
 4000c54:	e0bfff05 	stb	r2,-4(fp)
 4000c58:	e0bfff03 	ldbu	r2,-4(fp)
 4000c5c:	108010b0 	cmpltui	r2,r2,66
 4000c60:	103ff61e 	bne	r2,zero,4000c3c <Checkerboard+0x30>
//-=-=-=-=-=-=-=-=-=-=-=-=-=-=-=-=-=-=-=-=-=-=-=-=-=-=-=-=-=-=-=-=-=-=-=
void Checkerboard()
{
unsigned char i,j;
    
    for(i=0;i<8;i++)
 4000c64:	e0bfff43 	ldbu	r2,-3(fp)
 4000c68:	10800044 	addi	r2,r2,1
 4000c6c:	e0bfff45 	stb	r2,-3(fp)
 4000c70:	e0bfff43 	ldbu	r2,-3(fp)
 4000c74:	10800230 	cmpltui	r2,r2,8
 4000c78:	103fea1e 	bne	r2,zero,4000c24 <Checkerboard+0x18>
        {
            Write_Data(0x55);   //note one write_data updata one line
            Write_Data(0xaa);
        }
    }
}
 4000c7c:	e037883a 	mov	sp,fp
 4000c80:	dfc00117 	ldw	ra,4(sp)
 4000c84:	df000017 	ldw	fp,0(sp)
 4000c88:	dec00204 	addi	sp,sp,8
 4000c8c:	f800283a 	ret

04000c90 <Frame>:

//-=-=-=-=-=-=-=-=-=-=-=-=-=-=-=-=-=-=-=-=-=-=-=-=-=-=-=-=-=-=-=-=-=-=-=
//  Show Frame (Full Screen)
//-=-=-=-=-=-=-=-=-=-=-=-=-=-=-=-=-=-=-=-=-=-=-=-=-=-=-=-=-=-=-=-=-=-=-=
void Frame()
{
 4000c90:	defffd04 	addi	sp,sp,-12
 4000c94:	dfc00215 	stw	ra,8(sp)
 4000c98:	df000115 	stw	fp,4(sp)
 4000c9c:	df000104 	addi	fp,sp,4
unsigned char i,j;
    
    Set_Start_Page(0x00);
 4000ca0:	0009883a 	mov	r4,zero
 4000ca4:	40008b80 	call	40008b8 <Set_Start_Page>
    Set_Start_Column(XLevel);
 4000ca8:	0009883a 	mov	r4,zero
 4000cac:	40005480 	call	4000548 <Set_Start_Column>

    for(i=0;i<Max_Column;i++)  
 4000cb0:	e03fff45 	stb	zero,-3(fp)
 4000cb4:	00000506 	br	4000ccc <Frame+0x3c>
    {
        Write_Data(0x01);  //0X01最上面点亮
 4000cb8:	01000044 	movi	r4,1
 4000cbc:	40004400 	call	4000440 <Write_Data>
unsigned char i,j;
    
    Set_Start_Page(0x00);
    Set_Start_Column(XLevel);

    for(i=0;i<Max_Column;i++)  
 4000cc0:	e0bfff43 	ldbu	r2,-3(fp)
 4000cc4:	10800044 	addi	r2,r2,1
 4000cc8:	e0bfff45 	stb	r2,-3(fp)
 4000ccc:	e0bfff43 	ldbu	r2,-3(fp)
 4000cd0:	10803fcc 	andi	r2,r2,255
 4000cd4:	1080201c 	xori	r2,r2,128
 4000cd8:	10bfe004 	addi	r2,r2,-128
 4000cdc:	1004403a 	cmpge	r2,r2,zero
 4000ce0:	103ff51e 	bne	r2,zero,4000cb8 <Frame+0x28>
    {
        Write_Data(0x01);  //0X01最上面点亮
    }

    Set_Start_Page(0x07); 
 4000ce4:	010001c4 	movi	r4,7
 4000ce8:	40008b80 	call	40008b8 <Set_Start_Page>
    Set_Start_Column(XLevel);
 4000cec:	0009883a 	mov	r4,zero
 4000cf0:	40005480 	call	4000548 <Set_Start_Column>

    for(i=0;i<Max_Column;i++)
 4000cf4:	e03fff45 	stb	zero,-3(fp)
 4000cf8:	00000506 	br	4000d10 <Frame+0x80>
    {
        Write_Data(0x80);  //最下面点亮
 4000cfc:	01002004 	movi	r4,128
 4000d00:	40004400 	call	4000440 <Write_Data>
    }

    Set_Start_Page(0x07); 
    Set_Start_Column(XLevel);

    for(i=0;i<Max_Column;i++)
 4000d04:	e0bfff43 	ldbu	r2,-3(fp)
 4000d08:	10800044 	addi	r2,r2,1
 4000d0c:	e0bfff45 	stb	r2,-3(fp)
 4000d10:	e0bfff43 	ldbu	r2,-3(fp)
 4000d14:	10803fcc 	andi	r2,r2,255
 4000d18:	1080201c 	xori	r2,r2,128
 4000d1c:	10bfe004 	addi	r2,r2,-128
 4000d20:	1004403a 	cmpge	r2,r2,zero
 4000d24:	103ff51e 	bne	r2,zero,4000cfc <Frame+0x6c>
    {
        Write_Data(0x80);  //最下面点亮
    }

    for(i=0;i<8;i++)
 4000d28:	e03fff45 	stb	zero,-3(fp)
 4000d2c:	00001506 	br	4000d84 <Frame+0xf4>
    {
        Set_Start_Page(i);
 4000d30:	e13fff43 	ldbu	r4,-3(fp)
 4000d34:	40008b80 	call	40008b8 <Set_Start_Page>

        for(j=4;j<Max_Column;j+=(Max_Column-5))
 4000d38:	00800104 	movi	r2,4
 4000d3c:	e0bfff05 	stb	r2,-4(fp)
 4000d40:	00000706 	br	4000d60 <Frame+0xd0>
        {
            Set_Start_Column(XLevel+j);
 4000d44:	e13fff03 	ldbu	r4,-4(fp)
 4000d48:	40005480 	call	4000548 <Set_Start_Column>

            Write_Data(0xFF);
 4000d4c:	01003fc4 	movi	r4,255
 4000d50:	40004400 	call	4000440 <Write_Data>

    for(i=0;i<8;i++)
    {
        Set_Start_Page(i);

        for(j=4;j<Max_Column;j+=(Max_Column-5))
 4000d54:	e0bfff03 	ldbu	r2,-4(fp)
 4000d58:	10801ec4 	addi	r2,r2,123
 4000d5c:	e0bfff05 	stb	r2,-4(fp)
 4000d60:	e0bfff03 	ldbu	r2,-4(fp)
 4000d64:	10803fcc 	andi	r2,r2,255
 4000d68:	1080201c 	xori	r2,r2,128
 4000d6c:	10bfe004 	addi	r2,r2,-128
 4000d70:	1004403a 	cmpge	r2,r2,zero
 4000d74:	103ff31e 	bne	r2,zero,4000d44 <Frame+0xb4>
    for(i=0;i<Max_Column;i++)
    {
        Write_Data(0x80);  //最下面点亮
    }

    for(i=0;i<8;i++)
 4000d78:	e0bfff43 	ldbu	r2,-3(fp)
 4000d7c:	10800044 	addi	r2,r2,1
 4000d80:	e0bfff45 	stb	r2,-3(fp)
 4000d84:	e0bfff43 	ldbu	r2,-3(fp)
 4000d88:	10800230 	cmpltui	r2,r2,8
 4000d8c:	103fe81e 	bne	r2,zero,4000d30 <Frame+0xa0>
            Set_Start_Column(XLevel+j);

            Write_Data(0xFF);
        }
    }
}
 4000d90:	e037883a 	mov	sp,fp
 4000d94:	dfc00117 	ldw	ra,4(sp)
 4000d98:	df000017 	ldw	fp,0(sp)
 4000d9c:	dec00204 	addi	sp,sp,8
 4000da0:	f800283a 	ret

04000da4 <Show_Font57>:
//    b: Ascii
//    c: Start Page
//    d: Start Column
//-=-=-=-=-=-=-=-=-=-=-=-=-=-=-=-=-=-=-=-=-=-=-=-=-=-=-=-=-=-=-=-=-=-=-=
void Show_Font57(unsigned char a, unsigned char b, unsigned char c, unsigned char d)
{
 4000da4:	defff704 	addi	sp,sp,-36
 4000da8:	dfc00815 	stw	ra,32(sp)
 4000dac:	df000715 	stw	fp,28(sp)
 4000db0:	df000704 	addi	fp,sp,28
 4000db4:	e13ffb05 	stb	r4,-20(fp)
 4000db8:	e17ffc05 	stb	r5,-16(fp)
 4000dbc:	e1bffd05 	stb	r6,-12(fp)
 4000dc0:	e1fffe05 	stb	r7,-8(fp)
unsigned char *Src_Pointer;
unsigned char i;
i=0;
 4000dc4:	e03ff905 	stb	zero,-28(fp)
Src_Pointer=&Ascii_1[(b-1)][i];
 4000dc8:	e0bffc03 	ldbu	r2,-16(fp)
 4000dcc:	10800164 	muli	r2,r2,5
 4000dd0:	1007883a 	mov	r3,r2
 4000dd4:	e0bff903 	ldbu	r2,-28(fp)
 4000dd8:	1887883a 	add	r3,r3,r2
 4000ddc:	00810074 	movhi	r2,1025
 4000de0:	10a4b384 	addi	r2,r2,-27954
 4000de4:	10bffec4 	addi	r2,r2,-5
 4000de8:	1885883a 	add	r2,r3,r2
 4000dec:	e0bffa15 	stw	r2,-24(fp)


    switch(a)
 4000df0:	e0bffb03 	ldbu	r2,-20(fp)
 4000df4:	e0bfff15 	stw	r2,-4(fp)
 4000df8:	e0ffff17 	ldw	r3,-4(fp)
 4000dfc:	18800060 	cmpeqi	r2,r3,1
 4000e00:	1000041e 	bne	r2,zero,4000e14 <Show_Font57+0x70>
 4000e04:	e0ffff17 	ldw	r3,-4(fp)
 4000e08:	188000a0 	cmpeqi	r2,r3,2
 4000e0c:	10000c1e 	bne	r2,zero,4000e40 <Show_Font57+0x9c>
 4000e10:	00001506 	br	4000e68 <Show_Font57+0xc4>
    {
        case 1:
            Src_Pointer=&Ascii_1[(b-1)][i];
 4000e14:	e0bffc03 	ldbu	r2,-16(fp)
 4000e18:	10800164 	muli	r2,r2,5
 4000e1c:	1007883a 	mov	r3,r2
 4000e20:	e0bff903 	ldbu	r2,-28(fp)
 4000e24:	1887883a 	add	r3,r3,r2
 4000e28:	00810074 	movhi	r2,1025
 4000e2c:	10a4b384 	addi	r2,r2,-27954
 4000e30:	10bffec4 	addi	r2,r2,-5
 4000e34:	1885883a 	add	r2,r3,r2
 4000e38:	e0bffa15 	stw	r2,-24(fp)
            break;
 4000e3c:	00000a06 	br	4000e68 <Show_Font57+0xc4>
        case 2:
            Src_Pointer=&Ascii_2[(b-1)][i];
 4000e40:	e0bffc03 	ldbu	r2,-16(fp)
 4000e44:	10800164 	muli	r2,r2,5
 4000e48:	1007883a 	mov	r3,r2
 4000e4c:	e0bff903 	ldbu	r2,-28(fp)
 4000e50:	1887883a 	add	r3,r3,r2
 4000e54:	00810074 	movhi	r2,1025
 4000e58:	10a5e204 	addi	r2,r2,-26744
 4000e5c:	10bffec4 	addi	r2,r2,-5
 4000e60:	1885883a 	add	r2,r3,r2
 4000e64:	e0bffa15 	stw	r2,-24(fp)
            break;
    }
    Set_Start_Page(c);
 4000e68:	e13ffd03 	ldbu	r4,-12(fp)
 4000e6c:	40008b80 	call	40008b8 <Set_Start_Page>
    Set_Start_Column(d);
 4000e70:	e13ffe03 	ldbu	r4,-8(fp)
 4000e74:	40005480 	call	4000548 <Set_Start_Column>

    for(i=0;i<5;i++)
 4000e78:	e03ff905 	stb	zero,-28(fp)
 4000e7c:	00000a06 	br	4000ea8 <Show_Font57+0x104>
    {
        Write_Data(*Src_Pointer);
 4000e80:	e0bffa17 	ldw	r2,-24(fp)
 4000e84:	10800003 	ldbu	r2,0(r2)
 4000e88:	11003fcc 	andi	r4,r2,255
 4000e8c:	40004400 	call	4000440 <Write_Data>
        Src_Pointer++;
 4000e90:	e0bffa17 	ldw	r2,-24(fp)
 4000e94:	10800044 	addi	r2,r2,1
 4000e98:	e0bffa15 	stw	r2,-24(fp)
            break;
    }
    Set_Start_Page(c);
    Set_Start_Column(d);

    for(i=0;i<5;i++)
 4000e9c:	e0bff903 	ldbu	r2,-28(fp)
 4000ea0:	10800044 	addi	r2,r2,1
 4000ea4:	e0bff905 	stb	r2,-28(fp)
 4000ea8:	e0bff903 	ldbu	r2,-28(fp)
 4000eac:	10800170 	cmpltui	r2,r2,5
 4000eb0:	103ff31e 	bne	r2,zero,4000e80 <Show_Font57+0xdc>
    {
        Write_Data(*Src_Pointer);
        Src_Pointer++;
    }
    Write_Data(0x00);
 4000eb4:	0009883a 	mov	r4,zero
 4000eb8:	40004400 	call	4000440 <Write_Data>
}
 4000ebc:	e037883a 	mov	sp,fp
 4000ec0:	dfc00117 	ldw	ra,4(sp)
 4000ec4:	df000017 	ldw	fp,0(sp)
 4000ec8:	dec00204 	addi	sp,sp,8
 4000ecc:	f800283a 	ret

04000ed0 <Show_String>:
//    b: Start Page
//    c: Start Column
//    * Must write "0" in the end...
//-=-=-=-=-=-=-=-=-=-=-=-=-=-=-=-=-=-=-=-=-=-=-=-=-=-=-=-=-=-=-=-=-=-=-=
void Show_String(unsigned char a, unsigned char *Data_Pointer, unsigned char b, unsigned char c)
{
 4000ed0:	defff904 	addi	sp,sp,-28
 4000ed4:	dfc00615 	stw	ra,24(sp)
 4000ed8:	df000515 	stw	fp,20(sp)
 4000edc:	df000504 	addi	fp,sp,20
 4000ee0:	e17ffd15 	stw	r5,-12(fp)
 4000ee4:	e13ffc05 	stb	r4,-16(fp)
 4000ee8:	e1bffe05 	stb	r6,-8(fp)
 4000eec:	e1ffff05 	stb	r7,-4(fp)
unsigned char *Src_Pointer;

    Src_Pointer=Data_Pointer;
 4000ef0:	e0bffd17 	ldw	r2,-12(fp)
 4000ef4:	e0bffb15 	stw	r2,-20(fp)
    Show_Font57(1,96,b,c);          // No-Break Space
 4000ef8:	e1bffe03 	ldbu	r6,-8(fp)
 4000efc:	e1ffff03 	ldbu	r7,-4(fp)
 4000f00:	01000044 	movi	r4,1
 4000f04:	01401804 	movi	r5,96
 4000f08:	4000da40 	call	4000da4 <Show_Font57>
                        //   Must be written first before the string start...

    while(1)
    {
        Show_Font57(a,*Src_Pointer,b,c);
 4000f0c:	e13ffc03 	ldbu	r4,-16(fp)
 4000f10:	e0bffb17 	ldw	r2,-20(fp)
 4000f14:	10800003 	ldbu	r2,0(r2)
 4000f18:	11403fcc 	andi	r5,r2,255
 4000f1c:	e1bffe03 	ldbu	r6,-8(fp)
 4000f20:	e1ffff03 	ldbu	r7,-4(fp)
 4000f24:	4000da40 	call	4000da4 <Show_Font57>
        Src_Pointer++;
 4000f28:	e0bffb17 	ldw	r2,-20(fp)
 4000f2c:	10800044 	addi	r2,r2,1
 4000f30:	e0bffb15 	stw	r2,-20(fp)
        c+=6;
 4000f34:	e0bfff03 	ldbu	r2,-4(fp)
 4000f38:	10800184 	addi	r2,r2,6
 4000f3c:	e0bfff05 	stb	r2,-4(fp)
        if(*Src_Pointer == 0) break;
 4000f40:	e0bffb17 	ldw	r2,-20(fp)
 4000f44:	10800003 	ldbu	r2,0(r2)
 4000f48:	10803fcc 	andi	r2,r2,255
 4000f4c:	1005003a 	cmpeq	r2,r2,zero
 4000f50:	1000011e 	bne	r2,zero,4000f58 <Show_String+0x88>
    }
 4000f54:	003fed06 	br	4000f0c <Show_String+0x3c>
}
 4000f58:	e037883a 	mov	sp,fp
 4000f5c:	dfc00117 	ldw	ra,4(sp)
 4000f60:	df000017 	ldw	fp,0(sp)
 4000f64:	dec00204 	addi	sp,sp,8
 4000f68:	f800283a 	ret

04000f6c <Show_Pattern>:
//    b: End Page
//    c: Start Column
//    d: Total Columns
//-=-=-=-=-=-=-=-=-=-=-=-=-=-=-=-=-=-=-=-=-=-=-=-=-=-=-=-=-=-=-=-=-=-=-=
void Show_Pattern(unsigned char *Data_Pointer, unsigned char a, unsigned char b, unsigned char c, unsigned char d)
{
 4000f6c:	defff704 	addi	sp,sp,-36
 4000f70:	dfc00815 	stw	ra,32(sp)
 4000f74:	df000715 	stw	fp,28(sp)
 4000f78:	df000704 	addi	fp,sp,28
 4000f7c:	e13ffb15 	stw	r4,-20(fp)
 4000f80:	e0800217 	ldw	r2,8(fp)
 4000f84:	e17ffc05 	stb	r5,-16(fp)
 4000f88:	e1bffd05 	stb	r6,-12(fp)
 4000f8c:	e1fffe05 	stb	r7,-8(fp)
 4000f90:	e0bfff05 	stb	r2,-4(fp)
unsigned char *Src_Pointer;
unsigned char i,j;

    Src_Pointer=Data_Pointer;
 4000f94:	e0bffb17 	ldw	r2,-20(fp)
 4000f98:	e0bffa15 	stw	r2,-24(fp)
    for(i=a;i<(b+1);i++)
 4000f9c:	e0bffc03 	ldbu	r2,-16(fp)
 4000fa0:	e0bff945 	stb	r2,-27(fp)
 4000fa4:	00001606 	br	4001000 <Show_Pattern+0x94>
    {
        Set_Start_Page(i);
 4000fa8:	e13ff943 	ldbu	r4,-27(fp)
 4000fac:	40008b80 	call	40008b8 <Set_Start_Page>
        Set_Start_Column(c);
 4000fb0:	e13ffe03 	ldbu	r4,-8(fp)
 4000fb4:	40005480 	call	4000548 <Set_Start_Column>

        for(j=0;j<d;j++)
 4000fb8:	e03ff905 	stb	zero,-28(fp)
 4000fbc:	00000a06 	br	4000fe8 <Show_Pattern+0x7c>
        {
            Write_Data(*Src_Pointer);
 4000fc0:	e0bffa17 	ldw	r2,-24(fp)
 4000fc4:	10800003 	ldbu	r2,0(r2)
 4000fc8:	11003fcc 	andi	r4,r2,255
 4000fcc:	40004400 	call	4000440 <Write_Data>
            Src_Pointer++;
 4000fd0:	e0bffa17 	ldw	r2,-24(fp)
 4000fd4:	10800044 	addi	r2,r2,1
 4000fd8:	e0bffa15 	stw	r2,-24(fp)
    for(i=a;i<(b+1);i++)
    {
        Set_Start_Page(i);
        Set_Start_Column(c);

        for(j=0;j<d;j++)
 4000fdc:	e0bff903 	ldbu	r2,-28(fp)
 4000fe0:	10800044 	addi	r2,r2,1
 4000fe4:	e0bff905 	stb	r2,-28(fp)
 4000fe8:	e0fff903 	ldbu	r3,-28(fp)
 4000fec:	e0bfff03 	ldbu	r2,-4(fp)
 4000ff0:	18bff336 	bltu	r3,r2,4000fc0 <Show_Pattern+0x54>
{
unsigned char *Src_Pointer;
unsigned char i,j;

    Src_Pointer=Data_Pointer;
    for(i=a;i<(b+1);i++)
 4000ff4:	e0bff943 	ldbu	r2,-27(fp)
 4000ff8:	10800044 	addi	r2,r2,1
 4000ffc:	e0bff945 	stb	r2,-27(fp)
 4001000:	e0bff943 	ldbu	r2,-27(fp)
 4001004:	e0fffd03 	ldbu	r3,-12(fp)
 4001008:	18c00044 	addi	r3,r3,1
 400100c:	10ffe616 	blt	r2,r3,4000fa8 <Show_Pattern+0x3c>
        {
            Write_Data(*Src_Pointer);
            Src_Pointer++;
        }
    }
}
 4001010:	e037883a 	mov	sp,fp
 4001014:	dfc00117 	ldw	ra,4(sp)
 4001018:	df000017 	ldw	fp,0(sp)
 400101c:	dec00204 	addi	sp,sp,8
 4001020:	f800283a 	ret

04001024 <Vertical_Scroll>:
//    c: Set Vertical Scroll Area
//    d: Set Numbers of Row Scroll per Step
//    e: Set Time Interval between Each Scroll Step
//-=-=-=-=-=-=-=-=-=-=-=-=-=-=-=-=-=-=-=-=-=-=-=-=-=-=-=-=-=-=-=-=-=-=-=
void Vertical_Scroll(unsigned char a, unsigned char b, unsigned char c, unsigned char d, unsigned char e)
{
 4001024:	defff604 	addi	sp,sp,-40
 4001028:	dfc00915 	stw	ra,36(sp)
 400102c:	df000815 	stw	fp,32(sp)
 4001030:	df000804 	addi	fp,sp,32
 4001034:	e0800217 	ldw	r2,8(fp)
 4001038:	e13ffa05 	stb	r4,-24(fp)
 400103c:	e17ffb05 	stb	r5,-20(fp)
 4001040:	e1bffc05 	stb	r6,-16(fp)
 4001044:	e1fffd05 	stb	r7,-12(fp)
 4001048:	e0bffe05 	stb	r2,-8(fp)
unsigned int i,j;   

    Write_Command(0xA3);            // Set Vertical Scroll Area
 400104c:	010028c4 	movi	r4,163
 4001050:	40004140 	call	4000414 <Write_Command>
    Write_Command(b);           //   Default => 0x00 (Top Fixed Area)
 4001054:	e13ffb03 	ldbu	r4,-20(fp)
 4001058:	40004140 	call	4000414 <Write_Command>
    Write_Command(c);           //   Default => 0x40 (Vertical Scroll Area)
 400105c:	e13ffc03 	ldbu	r4,-16(fp)
 4001060:	40004140 	call	4000414 <Write_Command>

    switch(a)
 4001064:	e0bffa03 	ldbu	r2,-24(fp)
 4001068:	e0bfff15 	stw	r2,-4(fp)
 400106c:	e0ffff17 	ldw	r3,-4(fp)
 4001070:	1805003a 	cmpeq	r2,r3,zero
 4001074:	1000041e 	bne	r2,zero,4001088 <Vertical_Scroll+0x64>
 4001078:	e0ffff17 	ldw	r3,-4(fp)
 400107c:	18800060 	cmpeqi	r2,r3,1
 4001080:	1000181e 	bne	r2,zero,40010e4 <Vertical_Scroll+0xc0>
 4001084:	00003006 	br	4001148 <Vertical_Scroll+0x124>
    {
        case 0:
            for(i=0;i<c;i+=d)
 4001088:	e03ff915 	stw	zero,-28(fp)
 400108c:	00001106 	br	40010d4 <Vertical_Scroll+0xb0>
            {
                Set_Start_Line(i);
 4001090:	e0bff917 	ldw	r2,-28(fp)
 4001094:	11003fcc 	andi	r4,r2,255
 4001098:	40006500 	call	4000650 <Set_Start_Line>
                for(j=0;j<e;j++)
 400109c:	e03ff815 	stw	zero,-32(fp)
 40010a0:	00000506 	br	40010b8 <Vertical_Scroll+0x94>
                {
                    uDelay(200);
 40010a4:	01003204 	movi	r4,200
 40010a8:	400046c0 	call	400046c <uDelay>
    {
        case 0:
            for(i=0;i<c;i+=d)
            {
                Set_Start_Line(i);
                for(j=0;j<e;j++)
 40010ac:	e0bff817 	ldw	r2,-32(fp)
 40010b0:	10800044 	addi	r2,r2,1
 40010b4:	e0bff815 	stw	r2,-32(fp)
 40010b8:	e0fffe03 	ldbu	r3,-8(fp)
 40010bc:	e0bff817 	ldw	r2,-32(fp)
 40010c0:	10fff836 	bltu	r2,r3,40010a4 <Vertical_Scroll+0x80>
    Write_Command(c);           //   Default => 0x40 (Vertical Scroll Area)

    switch(a)
    {
        case 0:
            for(i=0;i<c;i+=d)
 40010c4:	e0bffd03 	ldbu	r2,-12(fp)
 40010c8:	e0fff917 	ldw	r3,-28(fp)
 40010cc:	1885883a 	add	r2,r3,r2
 40010d0:	e0bff915 	stw	r2,-28(fp)
 40010d4:	e0fffc03 	ldbu	r3,-16(fp)
 40010d8:	e0bff917 	ldw	r2,-28(fp)
 40010dc:	10ffec36 	bltu	r2,r3,4001090 <Vertical_Scroll+0x6c>
                for(j=0;j<e;j++)
                {
                    uDelay(200);
                }
            }
            break;
 40010e0:	00001906 	br	4001148 <Vertical_Scroll+0x124>
        case 1:
            for(i=0;i<c;i+=d)
 40010e4:	e03ff915 	stw	zero,-28(fp)
 40010e8:	00001406 	br	400113c <Vertical_Scroll+0x118>
            {
                Set_Start_Line(c-i);
 40010ec:	e0bff917 	ldw	r2,-28(fp)
 40010f0:	1007883a 	mov	r3,r2
 40010f4:	e0bffc03 	ldbu	r2,-16(fp)
 40010f8:	10c5c83a 	sub	r2,r2,r3
 40010fc:	11003fcc 	andi	r4,r2,255
 4001100:	40006500 	call	4000650 <Set_Start_Line>
                for(j=0;j<e;j++)
 4001104:	e03ff815 	stw	zero,-32(fp)
 4001108:	00000506 	br	4001120 <Vertical_Scroll+0xfc>
                {
                    uDelay(200);
 400110c:	01003204 	movi	r4,200
 4001110:	400046c0 	call	400046c <uDelay>
            break;
        case 1:
            for(i=0;i<c;i+=d)
            {
                Set_Start_Line(c-i);
                for(j=0;j<e;j++)
 4001114:	e0bff817 	ldw	r2,-32(fp)
 4001118:	10800044 	addi	r2,r2,1
 400111c:	e0bff815 	stw	r2,-32(fp)
 4001120:	e0fffe03 	ldbu	r3,-8(fp)
 4001124:	e0bff817 	ldw	r2,-32(fp)
 4001128:	10fff836 	bltu	r2,r3,400110c <Vertical_Scroll+0xe8>
                    uDelay(200);
                }
            }
            break;
        case 1:
            for(i=0;i<c;i+=d)
 400112c:	e0bffd03 	ldbu	r2,-12(fp)
 4001130:	e0fff917 	ldw	r3,-28(fp)
 4001134:	1885883a 	add	r2,r3,r2
 4001138:	e0bff915 	stw	r2,-28(fp)
 400113c:	e0fffc03 	ldbu	r3,-16(fp)
 4001140:	e0bff917 	ldw	r2,-28(fp)
 4001144:	10ffe936 	bltu	r2,r3,40010ec <Vertical_Scroll+0xc8>
                    uDelay(200);
                }
            }
            break;
    }
    Set_Start_Line(0x00);
 4001148:	0009883a 	mov	r4,zero
 400114c:	40006500 	call	4000650 <Set_Start_Line>
}
 4001150:	e037883a 	mov	sp,fp
 4001154:	dfc00117 	ldw	ra,4(sp)
 4001158:	df000017 	ldw	fp,0(sp)
 400115c:	dec00204 	addi	sp,sp,8
 4001160:	f800283a 	ret

04001164 <Horizontal_Scroll>:
//    d: Define End Page Address
//    e: Set Time Interval between Each Scroll Step in Terms of Frame Frequency
//    f: Delay Time
//-=-=-=-=-=-=-=-=-=-=-=-=-=-=-=-=-=-=-=-=-=-=-=-=-=-=-=-=-=-=-=-=-=-=-=
void Horizontal_Scroll(unsigned char a, unsigned char b, unsigned char c, unsigned char d, unsigned char e, unsigned char f)
{
 4001164:	defff804 	addi	sp,sp,-32
 4001168:	dfc00715 	stw	ra,28(sp)
 400116c:	df000615 	stw	fp,24(sp)
 4001170:	df000604 	addi	fp,sp,24
 4001174:	e0800217 	ldw	r2,8(fp)
 4001178:	e0c00317 	ldw	r3,12(fp)
 400117c:	e13ffa05 	stb	r4,-24(fp)
 4001180:	e17ffb05 	stb	r5,-20(fp)
 4001184:	e1bffc05 	stb	r6,-16(fp)
 4001188:	e1fffd05 	stb	r7,-12(fp)
 400118c:	e0bffe05 	stb	r2,-8(fp)
 4001190:	e0ffff05 	stb	r3,-4(fp)
    Write_Command(0x26|a);          // Horizontal Scroll Setup
 4001194:	e0bffa03 	ldbu	r2,-24(fp)
 4001198:	10800994 	ori	r2,r2,38
 400119c:	11003fcc 	andi	r4,r2,255
 40011a0:	40004140 	call	4000414 <Write_Command>
    Write_Command(b);
 40011a4:	e13ffb03 	ldbu	r4,-20(fp)
 40011a8:	40004140 	call	4000414 <Write_Command>
    Write_Command(c);
 40011ac:	e13ffc03 	ldbu	r4,-16(fp)
 40011b0:	40004140 	call	4000414 <Write_Command>
    Write_Command(e);
 40011b4:	e13ffe03 	ldbu	r4,-8(fp)
 40011b8:	40004140 	call	4000414 <Write_Command>
    Write_Command(d);
 40011bc:	e13ffd03 	ldbu	r4,-12(fp)
 40011c0:	40004140 	call	4000414 <Write_Command>
    Write_Command(0x2F);            // Activate Scrolling
 40011c4:	01000bc4 	movi	r4,47
 40011c8:	40004140 	call	4000414 <Write_Command>
    Delay(f);
 40011cc:	e13fff03 	ldbu	r4,-4(fp)
 40011d0:	40004b80 	call	40004b8 <Delay>
}
 40011d4:	e037883a 	mov	sp,fp
 40011d8:	dfc00117 	ldw	ra,4(sp)
 40011dc:	df000017 	ldw	fp,0(sp)
 40011e0:	dec00204 	addi	sp,sp,8
 40011e4:	f800283a 	ret

040011e8 <Continuous_Scroll>:
//    h: Set Time Interval between Each Scroll Step in Terms of Frame Frequency
//    i: Delay Time
//    * e+f must be less than or equal to the Multiplex Ratio...
//-=-=-=-=-=-=-=-=-=-=-=-=-=-=-=-=-=-=-=-=-=-=-=-=-=-=-=-=-=-=-=-=-=-=-=
void Continuous_Scroll(unsigned char a, unsigned char b, unsigned char c, unsigned char d, unsigned char e, unsigned char f, unsigned char g, unsigned char h, unsigned char i)
{
 40011e8:	defff504 	addi	sp,sp,-44
 40011ec:	dfc00a15 	stw	ra,40(sp)
 40011f0:	df000915 	stw	fp,36(sp)
 40011f4:	df000904 	addi	fp,sp,36
 40011f8:	e0800217 	ldw	r2,8(fp)
 40011fc:	e0c00317 	ldw	r3,12(fp)
 4001200:	e2000417 	ldw	r8,16(fp)
 4001204:	e2400517 	ldw	r9,20(fp)
 4001208:	e2800617 	ldw	r10,24(fp)
 400120c:	e13ff705 	stb	r4,-36(fp)
 4001210:	e17ff805 	stb	r5,-32(fp)
 4001214:	e1bff905 	stb	r6,-28(fp)
 4001218:	e1fffa05 	stb	r7,-24(fp)
 400121c:	e0bffb05 	stb	r2,-20(fp)
 4001220:	e0fffc05 	stb	r3,-16(fp)
 4001224:	e23ffd05 	stb	r8,-12(fp)
 4001228:	e27ffe05 	stb	r9,-8(fp)
 400122c:	e2bfff05 	stb	r10,-4(fp)
    Write_Command(0xA3);            // Set Vertical Scroll Area
 4001230:	010028c4 	movi	r4,163
 4001234:	40004140 	call	4000414 <Write_Command>
    Write_Command(e);           //   Default => 0x00 (Top Fixed Area)
 4001238:	e13ffb03 	ldbu	r4,-20(fp)
 400123c:	40004140 	call	4000414 <Write_Command>
    Write_Command(f);           //   Default => 0x40 (Vertical Scroll Area)
 4001240:	e13ffc03 	ldbu	r4,-16(fp)
 4001244:	40004140 	call	4000414 <Write_Command>

    Write_Command(0x29+a);          // Continuous Vertical & Horizontal Scroll Setup
 4001248:	e0bff703 	ldbu	r2,-36(fp)
 400124c:	10800a44 	addi	r2,r2,41
 4001250:	11003fcc 	andi	r4,r2,255
 4001254:	40004140 	call	4000414 <Write_Command>
    Write_Command(b);
 4001258:	e13ff803 	ldbu	r4,-32(fp)
 400125c:	40004140 	call	4000414 <Write_Command>
    Write_Command(c);
 4001260:	e13ff903 	ldbu	r4,-28(fp)
 4001264:	40004140 	call	4000414 <Write_Command>
    Write_Command(h);
 4001268:	e13ffe03 	ldbu	r4,-8(fp)
 400126c:	40004140 	call	4000414 <Write_Command>
    Write_Command(d);
 4001270:	e13ffa03 	ldbu	r4,-24(fp)
 4001274:	40004140 	call	4000414 <Write_Command>
    Write_Command(g);
 4001278:	e13ffd03 	ldbu	r4,-12(fp)
 400127c:	40004140 	call	4000414 <Write_Command>
    Write_Command(0x2F);            // Activate Scrolling
 4001280:	01000bc4 	movi	r4,47
 4001284:	40004140 	call	4000414 <Write_Command>
    Delay(i);
 4001288:	e13fff03 	ldbu	r4,-4(fp)
 400128c:	40004b80 	call	40004b8 <Delay>
}
 4001290:	e037883a 	mov	sp,fp
 4001294:	dfc00117 	ldw	ra,4(sp)
 4001298:	df000017 	ldw	fp,0(sp)
 400129c:	dec00204 	addi	sp,sp,8
 40012a0:	f800283a 	ret

040012a4 <Deactivate_Scroll>:

//-=-=-=-=-=-=-=-=-=-=-=-=-=-=-=-=-=-=-=-=-=-=-=-=-=-=-=-=-=-=-=-=-=-=-=
//  Deactivate Scrolling (Full Screen)
//-=-=-=-=-=-=-=-=-=-=-=-=-=-=-=-=-=-=-=-=-=-=-=-=-=-=-=-=-=-=-=-=-=-=-=
void Deactivate_Scroll()
{
 40012a4:	defffe04 	addi	sp,sp,-8
 40012a8:	dfc00115 	stw	ra,4(sp)
 40012ac:	df000015 	stw	fp,0(sp)
 40012b0:	d839883a 	mov	fp,sp
    Write_Command(0x2E);            // Deactivate Scrolling
 40012b4:	01000b84 	movi	r4,46
 40012b8:	40004140 	call	4000414 <Write_Command>
}
 40012bc:	e037883a 	mov	sp,fp
 40012c0:	dfc00117 	ldw	ra,4(sp)
 40012c4:	df000017 	ldw	fp,0(sp)
 40012c8:	dec00204 	addi	sp,sp,8
 40012cc:	f800283a 	ret

040012d0 <Fade_In>:

//-=-=-=-=-=-=-=-=-=-=-=-=-=-=-=-=-=-=-=-=-=-=-=-=-=-=-=-=-=-=-=-=-=-=-=
//  Fade In (Full Screen)
//-=-=-=-=-=-=-=-=-=-=-=-=-=-=-=-=-=-=-=-=-=-=-=-=-=-=-=-=-=-=-=-=-=-=-=
void Fade_In()
{
 40012d0:	defffd04 	addi	sp,sp,-12
 40012d4:	dfc00215 	stw	ra,8(sp)
 40012d8:	df000115 	stw	fp,4(sp)
 40012dc:	df000104 	addi	fp,sp,4
unsigned int i; 

    Set_Display_On_Off(0x01);
 40012e0:	01000044 	movi	r4,1
 40012e4:	400087c0 	call	400087c <Set_Display_On_Off>
    for(i=0;i<(Brightness+1);i++)
 40012e8:	e03fff15 	stw	zero,-4(fp)
 40012ec:	00000c06 	br	4001320 <Fade_In+0x50>
    {
        Set_Contrast_Control(i);
 40012f0:	e0bfff17 	ldw	r2,-4(fp)
 40012f4:	11003fcc 	andi	r4,r2,255
 40012f8:	40006880 	call	4000688 <Set_Contrast_Control>
        uDelay(200);
 40012fc:	01003204 	movi	r4,200
 4001300:	400046c0 	call	400046c <uDelay>
        uDelay(200);
 4001304:	01003204 	movi	r4,200
 4001308:	400046c0 	call	400046c <uDelay>
        uDelay(200);
 400130c:	01003204 	movi	r4,200
 4001310:	400046c0 	call	400046c <uDelay>
void Fade_In()
{
unsigned int i; 

    Set_Display_On_Off(0x01);
    for(i=0;i<(Brightness+1);i++)
 4001314:	e0bfff17 	ldw	r2,-4(fp)
 4001318:	10800044 	addi	r2,r2,1
 400131c:	e0bfff15 	stw	r2,-4(fp)
 4001320:	e0bfff17 	ldw	r2,-4(fp)
 4001324:	10801c30 	cmpltui	r2,r2,112
 4001328:	103ff11e 	bne	r2,zero,40012f0 <Fade_In+0x20>
        Set_Contrast_Control(i);
        uDelay(200);
        uDelay(200);
        uDelay(200);
    }
}
 400132c:	e037883a 	mov	sp,fp
 4001330:	dfc00117 	ldw	ra,4(sp)
 4001334:	df000017 	ldw	fp,0(sp)
 4001338:	dec00204 	addi	sp,sp,8
 400133c:	f800283a 	ret

04001340 <Fade_Out>:

//-=-=-=-=-=-=-=-=-=-=-=-=-=-=-=-=-=-=-=-=-=-=-=-=-=-=-=-=-=-=-=-=-=-=-=
//  Fade Out (Full Screen)
//-=-=-=-=-=-=-=-=-=-=-=-=-=-=-=-=-=-=-=-=-=-=-=-=-=-=-=-=-=-=-=-=-=-=-=
void Fade_Out()
{
 4001340:	defffd04 	addi	sp,sp,-12
 4001344:	dfc00215 	stw	ra,8(sp)
 4001348:	df000115 	stw	fp,4(sp)
 400134c:	df000104 	addi	fp,sp,4
unsigned int i; 

    for(i=(Brightness+1);i>0;i--)
 4001350:	00801c04 	movi	r2,112
 4001354:	e0bfff15 	stw	r2,-4(fp)
 4001358:	00000d06 	br	4001390 <Fade_Out+0x50>
    {
        Set_Contrast_Control(i-1);
 400135c:	e0bfff17 	ldw	r2,-4(fp)
 4001360:	10bfffc4 	addi	r2,r2,-1
 4001364:	11003fcc 	andi	r4,r2,255
 4001368:	40006880 	call	4000688 <Set_Contrast_Control>
        uDelay(200);
 400136c:	01003204 	movi	r4,200
 4001370:	400046c0 	call	400046c <uDelay>
        uDelay(200);
 4001374:	01003204 	movi	r4,200
 4001378:	400046c0 	call	400046c <uDelay>
        uDelay(200);
 400137c:	01003204 	movi	r4,200
 4001380:	400046c0 	call	400046c <uDelay>
//-=-=-=-=-=-=-=-=-=-=-=-=-=-=-=-=-=-=-=-=-=-=-=-=-=-=-=-=-=-=-=-=-=-=-=
void Fade_Out()
{
unsigned int i; 

    for(i=(Brightness+1);i>0;i--)
 4001384:	e0bfff17 	ldw	r2,-4(fp)
 4001388:	10bfffc4 	addi	r2,r2,-1
 400138c:	e0bfff15 	stw	r2,-4(fp)
 4001390:	e0bfff17 	ldw	r2,-4(fp)
 4001394:	1004c03a 	cmpne	r2,r2,zero
 4001398:	103ff01e 	bne	r2,zero,400135c <Fade_Out+0x1c>
        Set_Contrast_Control(i-1);
        uDelay(200);
        uDelay(200);
        uDelay(200);
    }
    Set_Display_On_Off(0x00);
 400139c:	0009883a 	mov	r4,zero
 40013a0:	400087c0 	call	400087c <Set_Display_On_Off>
}
 40013a4:	e037883a 	mov	sp,fp
 40013a8:	dfc00117 	ldw	ra,4(sp)
 40013ac:	df000017 	ldw	fp,0(sp)
 40013b0:	dec00204 	addi	sp,sp,8
 40013b4:	f800283a 	ret

040013b8 <Sleep>:
//
//    "0x00" Enter Sleep Mode
//    "0x01" Exit Sleep Mode
//-=-=-=-=-=-=-=-=-=-=-=-=-=-=-=-=-=-=-=-=-=-=-=-=-=-=-=-=-=-=-=-=-=-=-=
void Sleep(unsigned char a)
{
 40013b8:	defffc04 	addi	sp,sp,-16
 40013bc:	dfc00315 	stw	ra,12(sp)
 40013c0:	df000215 	stw	fp,8(sp)
 40013c4:	df000204 	addi	fp,sp,8
 40013c8:	e13ffe05 	stb	r4,-8(fp)
    switch(a)
 40013cc:	e0bffe03 	ldbu	r2,-8(fp)
 40013d0:	e0bfff15 	stw	r2,-4(fp)
 40013d4:	e0ffff17 	ldw	r3,-4(fp)
 40013d8:	1805003a 	cmpeq	r2,r3,zero
 40013dc:	1000041e 	bne	r2,zero,40013f0 <Sleep+0x38>
 40013e0:	e0ffff17 	ldw	r3,-4(fp)
 40013e4:	18800060 	cmpeqi	r2,r3,1
 40013e8:	1000061e 	bne	r2,zero,4001404 <Sleep+0x4c>
 40013ec:	00000906 	br	4001414 <Sleep+0x5c>
    {
        case 0:
            Set_Display_On_Off(0x00);
 40013f0:	0009883a 	mov	r4,zero
 40013f4:	400087c0 	call	400087c <Set_Display_On_Off>
            Set_Entire_Display(0x01);
 40013f8:	01000044 	movi	r4,1
 40013fc:	40007340 	call	4000734 <Set_Entire_Display>
            break;
 4001400:	00000406 	br	4001414 <Sleep+0x5c>
        case 1:
            Set_Entire_Display(0x00);
 4001404:	0009883a 	mov	r4,zero
 4001408:	40007340 	call	4000734 <Set_Entire_Display>
            Set_Display_On_Off(0x01);
 400140c:	01000044 	movi	r4,1
 4001410:	400087c0 	call	400087c <Set_Display_On_Off>
            break;
    }
}
 4001414:	e037883a 	mov	sp,fp
 4001418:	dfc00117 	ldw	ra,4(sp)
 400141c:	df000017 	ldw	fp,0(sp)
 4001420:	dec00204 	addi	sp,sp,8
 4001424:	f800283a 	ret

04001428 <Test>:

//-=-=-=-=-=-=-=-=-=-=-=-=-=-=-=-=-=-=-=-=-=-=-=-=-=-=-=-=-=-=-=-=-=-=-=
//  Connection Test
//-=-=-=-=-=-=-=-=-=-=-=-=-=-=-=-=-=-=-=-=-=-=-=-=-=-=-=-=-=-=-=-=-=-=-=
void Test()
{
 4001428:	defffd04 	addi	sp,sp,-12
 400142c:	dfc00215 	stw	ra,8(sp)
 4001430:	df000115 	stw	fp,4(sp)
 4001434:	df000104 	addi	fp,sp,4
unsigned char i;

  //  RES=0;
    for(i=0;i<200;i++)
 4001438:	e03fff05 	stb	zero,-4(fp)
 400143c:	00000506 	br	4001454 <Test+0x2c>
    {
        uDelay(200);
 4001440:	01003204 	movi	r4,200
 4001444:	400046c0 	call	400046c <uDelay>
void Test()
{
unsigned char i;

  //  RES=0;
    for(i=0;i<200;i++)
 4001448:	e0bfff03 	ldbu	r2,-4(fp)
 400144c:	10800044 	addi	r2,r2,1
 4001450:	e0bfff05 	stb	r2,-4(fp)
 4001454:	e0bfff03 	ldbu	r2,-4(fp)
 4001458:	10803230 	cmpltui	r2,r2,200
 400145c:	103ff81e 	bne	r2,zero,4001440 <Test+0x18>
    {
        uDelay(200);
    }
   // RES=1;

    Set_Entire_Display(0x01);       // Enable Entire Display On (0x00/0x01)
 4001460:	01000044 	movi	r4,1
 4001464:	40007340 	call	4000734 <Set_Entire_Display>

    while(1)
    {
        Set_Display_On_Off(0x01);   // Display On (0x00/0x01)
 4001468:	01000044 	movi	r4,1
 400146c:	400087c0 	call	400087c <Set_Display_On_Off>
        Delay(2);
 4001470:	01000084 	movi	r4,2
 4001474:	40004b80 	call	40004b8 <Delay>
        Set_Display_On_Off(0x00);   // Display Off (0x00/0x01)
 4001478:	0009883a 	mov	r4,zero
 400147c:	400087c0 	call	400087c <Set_Display_On_Off>
        Delay(2);
 4001480:	01000084 	movi	r4,2
 4001484:	40004b80 	call	40004b8 <Delay>
    }
 4001488:	003ff706 	br	4001468 <Test+0x40>

0400148c <Set_LUT>:

//-=-=-=-=-=-=-=-=-=-=-=-=-=-=-=-=-=-=-=-=-=-=-=-=-=-=-=-=-=-=-=-=-=-=-=
//  Bank Color & Look Up Table Setting (Partial Screen)
//-=-=-=-=-=-=-=-=-=-=-=-=-=-=-=-=-=-=-=-=-=-=-=-=-=-=-=-=-=-=-=-=-=-=-=
void Set_LUT(unsigned char a, unsigned char b, unsigned char c, unsigned char d)
{
 400148c:	defffa04 	addi	sp,sp,-24
 4001490:	dfc00515 	stw	ra,20(sp)
 4001494:	df000415 	stw	fp,16(sp)
 4001498:	df000404 	addi	fp,sp,16
 400149c:	e13ffc05 	stb	r4,-16(fp)
 40014a0:	e17ffd05 	stb	r5,-12(fp)
 40014a4:	e1bffe05 	stb	r6,-8(fp)
 40014a8:	e1ffff05 	stb	r7,-4(fp)
    Write_Command(0x91);            // Define Look Up Table of Area Color
 40014ac:	01002444 	movi	r4,145
 40014b0:	40004140 	call	4000414 <Write_Command>
    Write_Command(a);           //   Define Bank 0 Pulse Width
 40014b4:	e13ffc03 	ldbu	r4,-16(fp)
 40014b8:	40004140 	call	4000414 <Write_Command>
    Write_Command(b);           //   Define Color A Pulse Width
 40014bc:	e13ffd03 	ldbu	r4,-12(fp)
 40014c0:	40004140 	call	4000414 <Write_Command>
    Write_Command(c);           //   Define Color B Pulse Width
 40014c4:	e13ffe03 	ldbu	r4,-8(fp)
 40014c8:	40004140 	call	4000414 <Write_Command>
    Write_Command(d);           //   Define Color C Pulse Width
 40014cc:	e13fff03 	ldbu	r4,-4(fp)
 40014d0:	40004140 	call	4000414 <Write_Command>
}
 40014d4:	e037883a 	mov	sp,fp
 40014d8:	dfc00117 	ldw	ra,4(sp)
 40014dc:	df000017 	ldw	fp,0(sp)
 40014e0:	dec00204 	addi	sp,sp,8
 40014e4:	f800283a 	ret

040014e8 <Set_Bank_Color>:


void Set_Bank_Color()
{
 40014e8:	defffe04 	addi	sp,sp,-8
 40014ec:	dfc00115 	stw	ra,4(sp)
 40014f0:	df000015 	stw	fp,0(sp)
 40014f4:	d839883a 	mov	fp,sp
    Write_Command(0x92);            // Define Area Color for Bank 1~16 (Page 0)
 40014f8:	01002484 	movi	r4,146
 40014fc:	40004140 	call	4000414 <Write_Command>
    Write_Command(0x00);            //   Define Bank 1~4 as Color A
 4001500:	0009883a 	mov	r4,zero
 4001504:	40004140 	call	4000414 <Write_Command>
    Write_Command(0xEA);            //   Define Bank 5~7 as Color C
 4001508:	01003a84 	movi	r4,234
 400150c:	40004140 	call	4000414 <Write_Command>
    Write_Command(0xAF);            //   Define Bank 8~10 as Color D
 4001510:	01002bc4 	movi	r4,175
 4001514:	40004140 	call	4000414 <Write_Command>
    Write_Command(0x56);            //   Define Bank 11~13 as Color C
 4001518:	01001584 	movi	r4,86
 400151c:	40004140 	call	4000414 <Write_Command>
                        //   Define Bank 12~16 as Color B

    Write_Command(0x93);            // Define Area Color for Bank 17~32 (Page 1)
 4001520:	010024c4 	movi	r4,147
 4001524:	40004140 	call	4000414 <Write_Command>
    Write_Command(0x00);            //   Define Bank 17~20 as Color A
 4001528:	0009883a 	mov	r4,zero
 400152c:	40004140 	call	4000414 <Write_Command>
    Write_Command(0xEA);            //   Define Bank 21~23 as Color C
 4001530:	01003a84 	movi	r4,234
 4001534:	40004140 	call	4000414 <Write_Command>
    Write_Command(0xAF);            //   Define Bank 24~26 as Color D
 4001538:	01002bc4 	movi	r4,175
 400153c:	40004140 	call	4000414 <Write_Command>
    Write_Command(0x56);            //   Define Bank 27~29 as Color C
 4001540:	01001584 	movi	r4,86
 4001544:	40004140 	call	4000414 <Write_Command>
                        //   Define Bank 30~32 as Color B
}
 4001548:	e037883a 	mov	sp,fp
 400154c:	dfc00117 	ldw	ra,4(sp)
 4001550:	df000017 	ldw	fp,0(sp)
 4001554:	dec00204 	addi	sp,sp,8
 4001558:	f800283a 	ret

0400155c <OLED_Init>:

//=-=-=-=-=-=-=-=-=-=-=-=-=-=-=-=-=-=-=-=-=-=-=-=-=-=-=-=-=-=-=-=-=-=-=-=-=-=-=-=
//  Initialization
//=-=-=-=-=-=-=-=-=-=-=-=-=-=-=-=-=-=-=-=-=-=-=-=-=-=-=-=-=-=-=-=-=-=-=-=-=-=-=-=
void OLED_Init()
{
 400155c:	defffa04 	addi	sp,sp,-24
 4001560:	dfc00515 	stw	ra,20(sp)
 4001564:	df000415 	stw	fp,16(sp)
 4001568:	df000404 	addi	fp,sp,16
    unsigned char i;
    unsigned char hello_world[] = {41,38,45,45,48,97,56,48,51,45,37,0};
 400156c:	00800a44 	movi	r2,41
 4001570:	e0bffc45 	stb	r2,-15(fp)
 4001574:	00800984 	movi	r2,38
 4001578:	e0bffc85 	stb	r2,-14(fp)
 400157c:	00800b44 	movi	r2,45
 4001580:	e0bffcc5 	stb	r2,-13(fp)
 4001584:	00800b44 	movi	r2,45
 4001588:	e0bffd05 	stb	r2,-12(fp)
 400158c:	00800c04 	movi	r2,48
 4001590:	e0bffd45 	stb	r2,-11(fp)
 4001594:	00801844 	movi	r2,97
 4001598:	e0bffd85 	stb	r2,-10(fp)
 400159c:	00800e04 	movi	r2,56
 40015a0:	e0bffdc5 	stb	r2,-9(fp)
 40015a4:	00800c04 	movi	r2,48
 40015a8:	e0bffe05 	stb	r2,-8(fp)
 40015ac:	00800cc4 	movi	r2,51
 40015b0:	e0bffe45 	stb	r2,-7(fp)
 40015b4:	00800b44 	movi	r2,45
 40015b8:	e0bffe85 	stb	r2,-6(fp)
 40015bc:	00800944 	movi	r2,37
 40015c0:	e0bffec5 	stb	r2,-5(fp)
 40015c4:	e03fff05 	stb	zero,-4(fp)
    IOWR(RST_BASE, 0, 0);//复位
 40015c8:	00871004 	movi	r2,7232
 40015cc:	10000035 	stwio	zero,0(r2)
    for(i=0;i<200;i++)
 40015d0:	e03ffc05 	stb	zero,-16(fp)
 40015d4:	00000506 	br	40015ec <OLED_Init+0x90>
    {
        uDelay(200);
 40015d8:	01003204 	movi	r4,200
 40015dc:	400046c0 	call	400046c <uDelay>
void OLED_Init()
{
    unsigned char i;
    unsigned char hello_world[] = {41,38,45,45,48,97,56,48,51,45,37,0};
    IOWR(RST_BASE, 0, 0);//复位
    for(i=0;i<200;i++)
 40015e0:	e0bffc03 	ldbu	r2,-16(fp)
 40015e4:	10800044 	addi	r2,r2,1
 40015e8:	e0bffc05 	stb	r2,-16(fp)
 40015ec:	e0bffc03 	ldbu	r2,-16(fp)
 40015f0:	10803230 	cmpltui	r2,r2,200
 40015f4:	103ff81e 	bne	r2,zero,40015d8 <OLED_Init+0x7c>
    {
        uDelay(200);
    }
    IOWR(RST_BASE, 0, 1);//取消复位
 40015f8:	00871004 	movi	r2,7232
 40015fc:	00c00044 	movi	r3,1
 4001600:	10c00035 	stwio	r3,0(r2)
    Set_Display_On_Off(0x00);       // Display Off (0x00/0x01)
 4001604:	0009883a 	mov	r4,zero
 4001608:	400087c0 	call	400087c <Set_Display_On_Off>
    Set_Display_Clock(0xA0);        // Set Clock as 80 Frames/Sec
 400160c:	01002804 	movi	r4,160
 4001610:	40009680 	call	4000968 <Set_Display_Clock>
    Set_Multiplex_Ratio(0x3F);      // 1/64 Duty (0x0F~0x3F)
 4001614:	01000fc4 	movi	r4,63
 4001618:	40007ac0 	call	40007ac <Set_Multiplex_Ratio>
    Set_Display_Offset(0x00);       // Shift Mapping RAM Counter (0x00~0x3F)
 400161c:	0009883a 	mov	r4,zero
 4001620:	40009300 	call	4000930 <Set_Display_Offset>
    Set_Start_Line(0x00);           // Set Mapping RAM Display Start Line (0x00~0x3F)
 4001624:	0009883a 	mov	r4,zero
 4001628:	40006500 	call	4000650 <Set_Start_Line>
    Set_Master_Config(0x00);        // Disable Embedded DC/DC Converter (0x00/0x01)
 400162c:	0009883a 	mov	r4,zero
 4001630:	40008380 	call	4000838 <Set_Master_Config>
    Set_Area_Color(0x05);           // Set Monochrome & Low Power Save Mode
 4001634:	01000144 	movi	r4,5
 4001638:	40009a00 	call	40009a0 <Set_Area_Color>
    Set_Addressing_Mode(0x02);      // Set Page Addressing Mode (0x00/0x01/0x02)
 400163c:	01000084 	movi	r4,2
 4001640:	40005900 	call	4000590 <Set_Addressing_Mode>
    Set_Segment_Remap(0x01);        // Set SEG/Column Mapping (0x00/0x01)
 4001644:	01000044 	movi	r4,1
 4001648:	40006f80 	call	40006f8 <Set_Segment_Remap>
    Set_Common_Remap(0x08);         // Set COM/Row Scan Direction (0x00/0x08)
 400164c:	01000204 	movi	r4,8
 4001650:	40008f40 	call	40008f4 <Set_Common_Remap>
    Set_Common_Config(0x10);        // Set Alternative Configuration (0x00/0x10)
 4001654:	01000404 	movi	r4,16
 4001658:	4000a100 	call	4000a10 <Set_Common_Config>
    Set_LUT(0x3F,0x3F,0x3F,0x3F);       // Define All Banks Pulse Width as 64 Clocks
 400165c:	01000fc4 	movi	r4,63
 4001660:	01400fc4 	movi	r5,63
 4001664:	01800fc4 	movi	r6,63
 4001668:	01c00fc4 	movi	r7,63
 400166c:	400148c0 	call	400148c <Set_LUT>
    Set_Contrast_Control(Brightness);   // Set SEG Output Current
 4001670:	01001bc4 	movi	r4,111
 4001674:	40006880 	call	4000688 <Set_Contrast_Control>
    Set_Area_Brightness(Brightness);    // Set Brightness for Area Color Banks
 4001678:	01001bc4 	movi	r4,111
 400167c:	40006c00 	call	40006c0 <Set_Area_Brightness>
    Set_Precharge_Period(0xD2);     // Set Pre-Charge as 13 Clocks & Discharge as 2 Clock
 4001680:	01003484 	movi	r4,210
 4001684:	40009d80 	call	40009d8 <Set_Precharge_Period>
    Set_VCOMH(0x34);            // Set VCOM Deselect Level
 4001688:	01000d04 	movi	r4,52
 400168c:	4000a500 	call	4000a50 <Set_VCOMH>
    Set_Entire_Display(0x00);       // Disable Entire Display On (0x00/0x01)
 4001690:	0009883a 	mov	r4,zero
 4001694:	40007340 	call	4000734 <Set_Entire_Display>
    Set_Inverse_Display(0x00);      // Disable Inverse Display On (0x00/0x01)
 4001698:	0009883a 	mov	r4,zero
 400169c:	40007700 	call	4000770 <Set_Inverse_Display>

    Fill_RAM(0x00);             // Clear Screen
 40016a0:	0009883a 	mov	r4,zero
 40016a4:	4000af00 	call	4000af0 <Fill_RAM>

    Set_Display_On_Off(0x01);       // Display On (0x00/0x01)
 40016a8:	01000044 	movi	r4,1
 40016ac:	400087c0 	call	400087c <Set_Display_On_Off>
    Show_String(1,hello_world,3,35);
 40016b0:	e17ffc44 	addi	r5,fp,-15
 40016b4:	01000044 	movi	r4,1
 40016b8:	018000c4 	movi	r6,3
 40016bc:	01c008c4 	movi	r7,35
 40016c0:	4000ed00 	call	4000ed0 <Show_String>
}
 40016c4:	e037883a 	mov	sp,fp
 40016c8:	dfc00117 	ldw	ra,4(sp)
 40016cc:	df000017 	ldw	fp,0(sp)
 40016d0:	dec00204 	addi	sp,sp,8
 40016d4:	f800283a 	ret

040016d8 <_fpadd_parts>:
 40016d8:	defff804 	addi	sp,sp,-32
 40016dc:	dcc00315 	stw	r19,12(sp)
 40016e0:	2027883a 	mov	r19,r4
 40016e4:	21000017 	ldw	r4,0(r4)
 40016e8:	00c00044 	movi	r3,1
 40016ec:	dd400515 	stw	r21,20(sp)
 40016f0:	dd000415 	stw	r20,16(sp)
 40016f4:	ddc00715 	stw	r23,28(sp)
 40016f8:	dd800615 	stw	r22,24(sp)
 40016fc:	dc800215 	stw	r18,8(sp)
 4001700:	dc400115 	stw	r17,4(sp)
 4001704:	dc000015 	stw	r16,0(sp)
 4001708:	282b883a 	mov	r21,r5
 400170c:	3029883a 	mov	r20,r6
 4001710:	1900632e 	bgeu	r3,r4,40018a0 <_fpadd_parts+0x1c8>
 4001714:	28800017 	ldw	r2,0(r5)
 4001718:	1880812e 	bgeu	r3,r2,4001920 <_fpadd_parts+0x248>
 400171c:	00c00104 	movi	r3,4
 4001720:	20c0dc26 	beq	r4,r3,4001a94 <_fpadd_parts+0x3bc>
 4001724:	10c07e26 	beq	r2,r3,4001920 <_fpadd_parts+0x248>
 4001728:	00c00084 	movi	r3,2
 400172c:	10c06726 	beq	r2,r3,40018cc <_fpadd_parts+0x1f4>
 4001730:	20c07b26 	beq	r4,r3,4001920 <_fpadd_parts+0x248>
 4001734:	9dc00217 	ldw	r23,8(r19)
 4001738:	28c00217 	ldw	r3,8(r5)
 400173c:	9c400317 	ldw	r17,12(r19)
 4001740:	2bc00317 	ldw	r15,12(r5)
 4001744:	b8cdc83a 	sub	r6,r23,r3
 4001748:	9c800417 	ldw	r18,16(r19)
 400174c:	2c000417 	ldw	r16,16(r5)
 4001750:	3009883a 	mov	r4,r6
 4001754:	30009716 	blt	r6,zero,40019b4 <_fpadd_parts+0x2dc>
 4001758:	00800fc4 	movi	r2,63
 400175c:	11806b16 	blt	r2,r6,400190c <_fpadd_parts+0x234>
 4001760:	0100a40e 	bge	zero,r4,40019f4 <_fpadd_parts+0x31c>
 4001764:	35bff804 	addi	r22,r6,-32
 4001768:	b000bc16 	blt	r22,zero,4001a5c <_fpadd_parts+0x384>
 400176c:	8596d83a 	srl	r11,r16,r22
 4001770:	0019883a 	mov	r12,zero
 4001774:	0013883a 	mov	r9,zero
 4001778:	01000044 	movi	r4,1
 400177c:	0015883a 	mov	r10,zero
 4001780:	b000be16 	blt	r22,zero,4001a7c <_fpadd_parts+0x3a4>
 4001784:	2590983a 	sll	r8,r4,r22
 4001788:	000f883a 	mov	r7,zero
 400178c:	00bfffc4 	movi	r2,-1
 4001790:	3889883a 	add	r4,r7,r2
 4001794:	408b883a 	add	r5,r8,r2
 4001798:	21cd803a 	cmpltu	r6,r4,r7
 400179c:	314b883a 	add	r5,r6,r5
 40017a0:	7904703a 	and	r2,r15,r4
 40017a4:	8146703a 	and	r3,r16,r5
 40017a8:	10c4b03a 	or	r2,r2,r3
 40017ac:	10000226 	beq	r2,zero,40017b8 <_fpadd_parts+0xe0>
 40017b0:	02400044 	movi	r9,1
 40017b4:	0015883a 	mov	r10,zero
 40017b8:	5a5eb03a 	or	r15,r11,r9
 40017bc:	62a0b03a 	or	r16,r12,r10
 40017c0:	99400117 	ldw	r5,4(r19)
 40017c4:	a8800117 	ldw	r2,4(r21)
 40017c8:	28806e26 	beq	r5,r2,4001984 <_fpadd_parts+0x2ac>
 40017cc:	28006626 	beq	r5,zero,4001968 <_fpadd_parts+0x290>
 40017d0:	7c45c83a 	sub	r2,r15,r17
 40017d4:	7889803a 	cmpltu	r4,r15,r2
 40017d8:	8487c83a 	sub	r3,r16,r18
 40017dc:	1909c83a 	sub	r4,r3,r4
 40017e0:	100d883a 	mov	r6,r2
 40017e4:	200f883a 	mov	r7,r4
 40017e8:	38007716 	blt	r7,zero,40019c8 <_fpadd_parts+0x2f0>
 40017ec:	a5c00215 	stw	r23,8(r20)
 40017f0:	a1c00415 	stw	r7,16(r20)
 40017f4:	a0000115 	stw	zero,4(r20)
 40017f8:	a1800315 	stw	r6,12(r20)
 40017fc:	a2000317 	ldw	r8,12(r20)
 4001800:	a2400417 	ldw	r9,16(r20)
 4001804:	00bfffc4 	movi	r2,-1
 4001808:	408b883a 	add	r5,r8,r2
 400180c:	2a09803a 	cmpltu	r4,r5,r8
 4001810:	488d883a 	add	r6,r9,r2
 4001814:	01c40034 	movhi	r7,4096
 4001818:	39ffffc4 	addi	r7,r7,-1
 400181c:	218d883a 	add	r6,r4,r6
 4001820:	39801736 	bltu	r7,r6,4001880 <_fpadd_parts+0x1a8>
 4001824:	31c06526 	beq	r6,r7,40019bc <_fpadd_parts+0x2e4>
 4001828:	a3000217 	ldw	r12,8(r20)
 400182c:	4209883a 	add	r4,r8,r8
 4001830:	00bfffc4 	movi	r2,-1
 4001834:	220f803a 	cmpltu	r7,r4,r8
 4001838:	4a4b883a 	add	r5,r9,r9
 400183c:	394f883a 	add	r7,r7,r5
 4001840:	2095883a 	add	r10,r4,r2
 4001844:	3897883a 	add	r11,r7,r2
 4001848:	510d803a 	cmpltu	r6,r10,r4
 400184c:	6099883a 	add	r12,r12,r2
 4001850:	32d7883a 	add	r11,r6,r11
 4001854:	00840034 	movhi	r2,4096
 4001858:	10bfffc4 	addi	r2,r2,-1
 400185c:	2011883a 	mov	r8,r4
 4001860:	3813883a 	mov	r9,r7
 4001864:	a1000315 	stw	r4,12(r20)
 4001868:	a1c00415 	stw	r7,16(r20)
 400186c:	a3000215 	stw	r12,8(r20)
 4001870:	12c00336 	bltu	r2,r11,4001880 <_fpadd_parts+0x1a8>
 4001874:	58bfed1e 	bne	r11,r2,400182c <_fpadd_parts+0x154>
 4001878:	00bfff84 	movi	r2,-2
 400187c:	12bfeb2e 	bgeu	r2,r10,400182c <_fpadd_parts+0x154>
 4001880:	a2800417 	ldw	r10,16(r20)
 4001884:	008000c4 	movi	r2,3
 4001888:	00c80034 	movhi	r3,8192
 400188c:	18ffffc4 	addi	r3,r3,-1
 4001890:	a2400317 	ldw	r9,12(r20)
 4001894:	a0800015 	stw	r2,0(r20)
 4001898:	1a802336 	bltu	r3,r10,4001928 <_fpadd_parts+0x250>
 400189c:	a027883a 	mov	r19,r20
 40018a0:	9805883a 	mov	r2,r19
 40018a4:	ddc00717 	ldw	r23,28(sp)
 40018a8:	dd800617 	ldw	r22,24(sp)
 40018ac:	dd400517 	ldw	r21,20(sp)
 40018b0:	dd000417 	ldw	r20,16(sp)
 40018b4:	dcc00317 	ldw	r19,12(sp)
 40018b8:	dc800217 	ldw	r18,8(sp)
 40018bc:	dc400117 	ldw	r17,4(sp)
 40018c0:	dc000017 	ldw	r16,0(sp)
 40018c4:	dec00804 	addi	sp,sp,32
 40018c8:	f800283a 	ret
 40018cc:	20fff41e 	bne	r4,r3,40018a0 <_fpadd_parts+0x1c8>
 40018d0:	31000015 	stw	r4,0(r6)
 40018d4:	98800117 	ldw	r2,4(r19)
 40018d8:	30800115 	stw	r2,4(r6)
 40018dc:	98c00217 	ldw	r3,8(r19)
 40018e0:	30c00215 	stw	r3,8(r6)
 40018e4:	98800317 	ldw	r2,12(r19)
 40018e8:	30800315 	stw	r2,12(r6)
 40018ec:	98c00417 	ldw	r3,16(r19)
 40018f0:	30c00415 	stw	r3,16(r6)
 40018f4:	98800117 	ldw	r2,4(r19)
 40018f8:	28c00117 	ldw	r3,4(r5)
 40018fc:	3027883a 	mov	r19,r6
 4001900:	10c4703a 	and	r2,r2,r3
 4001904:	30800115 	stw	r2,4(r6)
 4001908:	003fe506 	br	40018a0 <_fpadd_parts+0x1c8>
 400190c:	1dc02616 	blt	r3,r23,40019a8 <_fpadd_parts+0x2d0>
 4001910:	0023883a 	mov	r17,zero
 4001914:	182f883a 	mov	r23,r3
 4001918:	0025883a 	mov	r18,zero
 400191c:	003fa806 	br	40017c0 <_fpadd_parts+0xe8>
 4001920:	a827883a 	mov	r19,r21
 4001924:	003fde06 	br	40018a0 <_fpadd_parts+0x1c8>
 4001928:	01800044 	movi	r6,1
 400192c:	500497fa 	slli	r2,r10,31
 4001930:	4808d07a 	srli	r4,r9,1
 4001934:	518ad83a 	srl	r5,r10,r6
 4001938:	a2000217 	ldw	r8,8(r20)
 400193c:	1108b03a 	or	r4,r2,r4
 4001940:	0007883a 	mov	r3,zero
 4001944:	4984703a 	and	r2,r9,r6
 4001948:	208cb03a 	or	r6,r4,r2
 400194c:	28ceb03a 	or	r7,r5,r3
 4001950:	42000044 	addi	r8,r8,1
 4001954:	a027883a 	mov	r19,r20
 4001958:	a1c00415 	stw	r7,16(r20)
 400195c:	a2000215 	stw	r8,8(r20)
 4001960:	a1800315 	stw	r6,12(r20)
 4001964:	003fce06 	br	40018a0 <_fpadd_parts+0x1c8>
 4001968:	8bc5c83a 	sub	r2,r17,r15
 400196c:	8889803a 	cmpltu	r4,r17,r2
 4001970:	9407c83a 	sub	r3,r18,r16
 4001974:	1909c83a 	sub	r4,r3,r4
 4001978:	100d883a 	mov	r6,r2
 400197c:	200f883a 	mov	r7,r4
 4001980:	003f9906 	br	40017e8 <_fpadd_parts+0x110>
 4001984:	8bc5883a 	add	r2,r17,r15
 4001988:	1449803a 	cmpltu	r4,r2,r17
 400198c:	9407883a 	add	r3,r18,r16
 4001990:	20c9883a 	add	r4,r4,r3
 4001994:	a1400115 	stw	r5,4(r20)
 4001998:	a5c00215 	stw	r23,8(r20)
 400199c:	a0800315 	stw	r2,12(r20)
 40019a0:	a1000415 	stw	r4,16(r20)
 40019a4:	003fb606 	br	4001880 <_fpadd_parts+0x1a8>
 40019a8:	001f883a 	mov	r15,zero
 40019ac:	0021883a 	mov	r16,zero
 40019b0:	003f8306 	br	40017c0 <_fpadd_parts+0xe8>
 40019b4:	018dc83a 	sub	r6,zero,r6
 40019b8:	003f6706 	br	4001758 <_fpadd_parts+0x80>
 40019bc:	00bfff84 	movi	r2,-2
 40019c0:	117faf36 	bltu	r2,r5,4001880 <_fpadd_parts+0x1a8>
 40019c4:	003f9806 	br	4001828 <_fpadd_parts+0x150>
 40019c8:	0005883a 	mov	r2,zero
 40019cc:	1189c83a 	sub	r4,r2,r6
 40019d0:	1105803a 	cmpltu	r2,r2,r4
 40019d4:	01cbc83a 	sub	r5,zero,r7
 40019d8:	2885c83a 	sub	r2,r5,r2
 40019dc:	01800044 	movi	r6,1
 40019e0:	a1800115 	stw	r6,4(r20)
 40019e4:	a5c00215 	stw	r23,8(r20)
 40019e8:	a1000315 	stw	r4,12(r20)
 40019ec:	a0800415 	stw	r2,16(r20)
 40019f0:	003f8206 	br	40017fc <_fpadd_parts+0x124>
 40019f4:	203f7226 	beq	r4,zero,40017c0 <_fpadd_parts+0xe8>
 40019f8:	35bff804 	addi	r22,r6,-32
 40019fc:	b9af883a 	add	r23,r23,r6
 4001a00:	b0003116 	blt	r22,zero,4001ac8 <_fpadd_parts+0x3f0>
 4001a04:	959ad83a 	srl	r13,r18,r22
 4001a08:	001d883a 	mov	r14,zero
 4001a0c:	000f883a 	mov	r7,zero
 4001a10:	01000044 	movi	r4,1
 4001a14:	0011883a 	mov	r8,zero
 4001a18:	b0002516 	blt	r22,zero,4001ab0 <_fpadd_parts+0x3d8>
 4001a1c:	2594983a 	sll	r10,r4,r22
 4001a20:	0013883a 	mov	r9,zero
 4001a24:	00bfffc4 	movi	r2,-1
 4001a28:	4889883a 	add	r4,r9,r2
 4001a2c:	508b883a 	add	r5,r10,r2
 4001a30:	224d803a 	cmpltu	r6,r4,r9
 4001a34:	314b883a 	add	r5,r6,r5
 4001a38:	8904703a 	and	r2,r17,r4
 4001a3c:	9146703a 	and	r3,r18,r5
 4001a40:	10c4b03a 	or	r2,r2,r3
 4001a44:	10000226 	beq	r2,zero,4001a50 <_fpadd_parts+0x378>
 4001a48:	01c00044 	movi	r7,1
 4001a4c:	0011883a 	mov	r8,zero
 4001a50:	69e2b03a 	or	r17,r13,r7
 4001a54:	7224b03a 	or	r18,r14,r8
 4001a58:	003f5906 	br	40017c0 <_fpadd_parts+0xe8>
 4001a5c:	8407883a 	add	r3,r16,r16
 4001a60:	008007c4 	movi	r2,31
 4001a64:	1185c83a 	sub	r2,r2,r6
 4001a68:	1886983a 	sll	r3,r3,r2
 4001a6c:	7996d83a 	srl	r11,r15,r6
 4001a70:	8198d83a 	srl	r12,r16,r6
 4001a74:	1ad6b03a 	or	r11,r3,r11
 4001a78:	003f3e06 	br	4001774 <_fpadd_parts+0x9c>
 4001a7c:	2006d07a 	srli	r3,r4,1
 4001a80:	008007c4 	movi	r2,31
 4001a84:	1185c83a 	sub	r2,r2,r6
 4001a88:	1890d83a 	srl	r8,r3,r2
 4001a8c:	218e983a 	sll	r7,r4,r6
 4001a90:	003f3e06 	br	400178c <_fpadd_parts+0xb4>
 4001a94:	113f821e 	bne	r2,r4,40018a0 <_fpadd_parts+0x1c8>
 4001a98:	28c00117 	ldw	r3,4(r5)
 4001a9c:	98800117 	ldw	r2,4(r19)
 4001aa0:	10ff7f26 	beq	r2,r3,40018a0 <_fpadd_parts+0x1c8>
 4001aa4:	04c10074 	movhi	r19,1025
 4001aa8:	9ce29e04 	addi	r19,r19,-30088
 4001aac:	003f7c06 	br	40018a0 <_fpadd_parts+0x1c8>
 4001ab0:	2006d07a 	srli	r3,r4,1
 4001ab4:	008007c4 	movi	r2,31
 4001ab8:	1185c83a 	sub	r2,r2,r6
 4001abc:	1894d83a 	srl	r10,r3,r2
 4001ac0:	2192983a 	sll	r9,r4,r6
 4001ac4:	003fd706 	br	4001a24 <_fpadd_parts+0x34c>
 4001ac8:	9487883a 	add	r3,r18,r18
 4001acc:	008007c4 	movi	r2,31
 4001ad0:	1185c83a 	sub	r2,r2,r6
 4001ad4:	1886983a 	sll	r3,r3,r2
 4001ad8:	899ad83a 	srl	r13,r17,r6
 4001adc:	919cd83a 	srl	r14,r18,r6
 4001ae0:	1b5ab03a 	or	r13,r3,r13
 4001ae4:	003fc906 	br	4001a0c <_fpadd_parts+0x334>

04001ae8 <__subdf3>:
 4001ae8:	deffea04 	addi	sp,sp,-88
 4001aec:	dcc01415 	stw	r19,80(sp)
 4001af0:	dcc00404 	addi	r19,sp,16
 4001af4:	2011883a 	mov	r8,r4
 4001af8:	2813883a 	mov	r9,r5
 4001afc:	dc401315 	stw	r17,76(sp)
 4001b00:	d809883a 	mov	r4,sp
 4001b04:	980b883a 	mov	r5,r19
 4001b08:	dc400904 	addi	r17,sp,36
 4001b0c:	dfc01515 	stw	ra,84(sp)
 4001b10:	da400115 	stw	r9,4(sp)
 4001b14:	d9c00315 	stw	r7,12(sp)
 4001b18:	da000015 	stw	r8,0(sp)
 4001b1c:	d9800215 	stw	r6,8(sp)
 4001b20:	40023280 	call	4002328 <__unpack_d>
 4001b24:	d9000204 	addi	r4,sp,8
 4001b28:	880b883a 	mov	r5,r17
 4001b2c:	40023280 	call	4002328 <__unpack_d>
 4001b30:	d8800a17 	ldw	r2,40(sp)
 4001b34:	880b883a 	mov	r5,r17
 4001b38:	9809883a 	mov	r4,r19
 4001b3c:	d9800e04 	addi	r6,sp,56
 4001b40:	1080005c 	xori	r2,r2,1
 4001b44:	d8800a15 	stw	r2,40(sp)
 4001b48:	40016d80 	call	40016d8 <_fpadd_parts>
 4001b4c:	1009883a 	mov	r4,r2
 4001b50:	40020140 	call	4002014 <__pack_d>
 4001b54:	dfc01517 	ldw	ra,84(sp)
 4001b58:	dcc01417 	ldw	r19,80(sp)
 4001b5c:	dc401317 	ldw	r17,76(sp)
 4001b60:	dec01604 	addi	sp,sp,88
 4001b64:	f800283a 	ret

04001b68 <__adddf3>:
 4001b68:	deffea04 	addi	sp,sp,-88
 4001b6c:	dcc01415 	stw	r19,80(sp)
 4001b70:	dcc00404 	addi	r19,sp,16
 4001b74:	2011883a 	mov	r8,r4
 4001b78:	2813883a 	mov	r9,r5
 4001b7c:	dc401315 	stw	r17,76(sp)
 4001b80:	d809883a 	mov	r4,sp
 4001b84:	980b883a 	mov	r5,r19
 4001b88:	dc400904 	addi	r17,sp,36
 4001b8c:	dfc01515 	stw	ra,84(sp)
 4001b90:	da400115 	stw	r9,4(sp)
 4001b94:	d9c00315 	stw	r7,12(sp)
 4001b98:	da000015 	stw	r8,0(sp)
 4001b9c:	d9800215 	stw	r6,8(sp)
 4001ba0:	40023280 	call	4002328 <__unpack_d>
 4001ba4:	d9000204 	addi	r4,sp,8
 4001ba8:	880b883a 	mov	r5,r17
 4001bac:	40023280 	call	4002328 <__unpack_d>
 4001bb0:	d9800e04 	addi	r6,sp,56
 4001bb4:	9809883a 	mov	r4,r19
 4001bb8:	880b883a 	mov	r5,r17
 4001bbc:	40016d80 	call	40016d8 <_fpadd_parts>
 4001bc0:	1009883a 	mov	r4,r2
 4001bc4:	40020140 	call	4002014 <__pack_d>
 4001bc8:	dfc01517 	ldw	ra,84(sp)
 4001bcc:	dcc01417 	ldw	r19,80(sp)
 4001bd0:	dc401317 	ldw	r17,76(sp)
 4001bd4:	dec01604 	addi	sp,sp,88
 4001bd8:	f800283a 	ret

04001bdc <__fixdfsi>:
 4001bdc:	defff804 	addi	sp,sp,-32
 4001be0:	2005883a 	mov	r2,r4
 4001be4:	2807883a 	mov	r3,r5
 4001be8:	d809883a 	mov	r4,sp
 4001bec:	d9400204 	addi	r5,sp,8
 4001bf0:	d8c00115 	stw	r3,4(sp)
 4001bf4:	d8800015 	stw	r2,0(sp)
 4001bf8:	dfc00715 	stw	ra,28(sp)
 4001bfc:	40023280 	call	4002328 <__unpack_d>
 4001c00:	d8c00217 	ldw	r3,8(sp)
 4001c04:	00800084 	movi	r2,2
 4001c08:	1880051e 	bne	r3,r2,4001c20 <__fixdfsi+0x44>
 4001c0c:	0007883a 	mov	r3,zero
 4001c10:	1805883a 	mov	r2,r3
 4001c14:	dfc00717 	ldw	ra,28(sp)
 4001c18:	dec00804 	addi	sp,sp,32
 4001c1c:	f800283a 	ret
 4001c20:	00800044 	movi	r2,1
 4001c24:	10fff92e 	bgeu	r2,r3,4001c0c <__fixdfsi+0x30>
 4001c28:	00800104 	movi	r2,4
 4001c2c:	18800426 	beq	r3,r2,4001c40 <__fixdfsi+0x64>
 4001c30:	d8c00417 	ldw	r3,16(sp)
 4001c34:	183ff516 	blt	r3,zero,4001c0c <__fixdfsi+0x30>
 4001c38:	00800784 	movi	r2,30
 4001c3c:	10c0080e 	bge	r2,r3,4001c60 <__fixdfsi+0x84>
 4001c40:	d8800317 	ldw	r2,12(sp)
 4001c44:	1000121e 	bne	r2,zero,4001c90 <__fixdfsi+0xb4>
 4001c48:	00e00034 	movhi	r3,32768
 4001c4c:	18ffffc4 	addi	r3,r3,-1
 4001c50:	1805883a 	mov	r2,r3
 4001c54:	dfc00717 	ldw	ra,28(sp)
 4001c58:	dec00804 	addi	sp,sp,32
 4001c5c:	f800283a 	ret
 4001c60:	00800f04 	movi	r2,60
 4001c64:	10d1c83a 	sub	r8,r2,r3
 4001c68:	40bff804 	addi	r2,r8,-32
 4001c6c:	d9800517 	ldw	r6,20(sp)
 4001c70:	d9c00617 	ldw	r7,24(sp)
 4001c74:	10000816 	blt	r2,zero,4001c98 <__fixdfsi+0xbc>
 4001c78:	3888d83a 	srl	r4,r7,r2
 4001c7c:	d8800317 	ldw	r2,12(sp)
 4001c80:	2007883a 	mov	r3,r4
 4001c84:	103fe226 	beq	r2,zero,4001c10 <__fixdfsi+0x34>
 4001c88:	0107c83a 	sub	r3,zero,r4
 4001c8c:	003fe006 	br	4001c10 <__fixdfsi+0x34>
 4001c90:	00e00034 	movhi	r3,32768
 4001c94:	003fde06 	br	4001c10 <__fixdfsi+0x34>
 4001c98:	39c7883a 	add	r3,r7,r7
 4001c9c:	008007c4 	movi	r2,31
 4001ca0:	1205c83a 	sub	r2,r2,r8
 4001ca4:	1886983a 	sll	r3,r3,r2
 4001ca8:	3208d83a 	srl	r4,r6,r8
 4001cac:	1908b03a 	or	r4,r3,r4
 4001cb0:	003ff206 	br	4001c7c <__fixdfsi+0xa0>

04001cb4 <__floatunsidf>:
 4001cb4:	defff204 	addi	sp,sp,-56
 4001cb8:	dfc00d15 	stw	ra,52(sp)
 4001cbc:	ddc00c15 	stw	r23,48(sp)
 4001cc0:	dd800b15 	stw	r22,44(sp)
 4001cc4:	dd400a15 	stw	r21,40(sp)
 4001cc8:	dd000915 	stw	r20,36(sp)
 4001ccc:	dcc00815 	stw	r19,32(sp)
 4001cd0:	dc800715 	stw	r18,28(sp)
 4001cd4:	dc400615 	stw	r17,24(sp)
 4001cd8:	dc000515 	stw	r16,20(sp)
 4001cdc:	d8000115 	stw	zero,4(sp)
 4001ce0:	20000f1e 	bne	r4,zero,4001d20 <__floatunsidf+0x6c>
 4001ce4:	00800084 	movi	r2,2
 4001ce8:	d8800015 	stw	r2,0(sp)
 4001cec:	d809883a 	mov	r4,sp
 4001cf0:	40020140 	call	4002014 <__pack_d>
 4001cf4:	dfc00d17 	ldw	ra,52(sp)
 4001cf8:	ddc00c17 	ldw	r23,48(sp)
 4001cfc:	dd800b17 	ldw	r22,44(sp)
 4001d00:	dd400a17 	ldw	r21,40(sp)
 4001d04:	dd000917 	ldw	r20,36(sp)
 4001d08:	dcc00817 	ldw	r19,32(sp)
 4001d0c:	dc800717 	ldw	r18,28(sp)
 4001d10:	dc400617 	ldw	r17,24(sp)
 4001d14:	dc000517 	ldw	r16,20(sp)
 4001d18:	dec00e04 	addi	sp,sp,56
 4001d1c:	f800283a 	ret
 4001d20:	008000c4 	movi	r2,3
 4001d24:	00c00f04 	movi	r3,60
 4001d28:	002f883a 	mov	r23,zero
 4001d2c:	202d883a 	mov	r22,r4
 4001d30:	d8800015 	stw	r2,0(sp)
 4001d34:	d8c00215 	stw	r3,8(sp)
 4001d38:	d9000315 	stw	r4,12(sp)
 4001d3c:	ddc00415 	stw	r23,16(sp)
 4001d40:	4001f940 	call	4001f94 <__clzsi2>
 4001d44:	12400744 	addi	r9,r2,29
 4001d48:	48000b16 	blt	r9,zero,4001d78 <__floatunsidf+0xc4>
 4001d4c:	483fe726 	beq	r9,zero,4001cec <__floatunsidf+0x38>
 4001d50:	10bfff44 	addi	r2,r2,-3
 4001d54:	10002e16 	blt	r2,zero,4001e10 <__floatunsidf+0x15c>
 4001d58:	b0a2983a 	sll	r17,r22,r2
 4001d5c:	0021883a 	mov	r16,zero
 4001d60:	d8800217 	ldw	r2,8(sp)
 4001d64:	dc400415 	stw	r17,16(sp)
 4001d68:	dc000315 	stw	r16,12(sp)
 4001d6c:	1245c83a 	sub	r2,r2,r9
 4001d70:	d8800215 	stw	r2,8(sp)
 4001d74:	003fdd06 	br	4001cec <__floatunsidf+0x38>
 4001d78:	0255c83a 	sub	r10,zero,r9
 4001d7c:	51bff804 	addi	r6,r10,-32
 4001d80:	30001b16 	blt	r6,zero,4001df0 <__floatunsidf+0x13c>
 4001d84:	b9a8d83a 	srl	r20,r23,r6
 4001d88:	002b883a 	mov	r21,zero
 4001d8c:	000f883a 	mov	r7,zero
 4001d90:	01000044 	movi	r4,1
 4001d94:	0011883a 	mov	r8,zero
 4001d98:	30002516 	blt	r6,zero,4001e30 <__floatunsidf+0x17c>
 4001d9c:	21a6983a 	sll	r19,r4,r6
 4001da0:	0025883a 	mov	r18,zero
 4001da4:	00bfffc4 	movi	r2,-1
 4001da8:	9089883a 	add	r4,r18,r2
 4001dac:	988b883a 	add	r5,r19,r2
 4001db0:	248d803a 	cmpltu	r6,r4,r18
 4001db4:	314b883a 	add	r5,r6,r5
 4001db8:	b104703a 	and	r2,r22,r4
 4001dbc:	b946703a 	and	r3,r23,r5
 4001dc0:	10c4b03a 	or	r2,r2,r3
 4001dc4:	10000226 	beq	r2,zero,4001dd0 <__floatunsidf+0x11c>
 4001dc8:	01c00044 	movi	r7,1
 4001dcc:	0011883a 	mov	r8,zero
 4001dd0:	d9000217 	ldw	r4,8(sp)
 4001dd4:	a1c4b03a 	or	r2,r20,r7
 4001dd8:	aa06b03a 	or	r3,r21,r8
 4001ddc:	2249c83a 	sub	r4,r4,r9
 4001de0:	d8c00415 	stw	r3,16(sp)
 4001de4:	d9000215 	stw	r4,8(sp)
 4001de8:	d8800315 	stw	r2,12(sp)
 4001dec:	003fbf06 	br	4001cec <__floatunsidf+0x38>
 4001df0:	bdc7883a 	add	r3,r23,r23
 4001df4:	008007c4 	movi	r2,31
 4001df8:	1285c83a 	sub	r2,r2,r10
 4001dfc:	1886983a 	sll	r3,r3,r2
 4001e00:	b2a8d83a 	srl	r20,r22,r10
 4001e04:	baaad83a 	srl	r21,r23,r10
 4001e08:	1d28b03a 	or	r20,r3,r20
 4001e0c:	003fdf06 	br	4001d8c <__floatunsidf+0xd8>
 4001e10:	b006d07a 	srli	r3,r22,1
 4001e14:	008007c4 	movi	r2,31
 4001e18:	1245c83a 	sub	r2,r2,r9
 4001e1c:	1886d83a 	srl	r3,r3,r2
 4001e20:	ba62983a 	sll	r17,r23,r9
 4001e24:	b260983a 	sll	r16,r22,r9
 4001e28:	1c62b03a 	or	r17,r3,r17
 4001e2c:	003fcc06 	br	4001d60 <__floatunsidf+0xac>
 4001e30:	2006d07a 	srli	r3,r4,1
 4001e34:	008007c4 	movi	r2,31
 4001e38:	1285c83a 	sub	r2,r2,r10
 4001e3c:	18a6d83a 	srl	r19,r3,r2
 4001e40:	22a4983a 	sll	r18,r4,r10
 4001e44:	003fd706 	br	4001da4 <__floatunsidf+0xf0>

04001e48 <udivmodsi4>:
 4001e48:	29001b2e 	bgeu	r5,r4,4001eb8 <udivmodsi4+0x70>
 4001e4c:	28001a16 	blt	r5,zero,4001eb8 <udivmodsi4+0x70>
 4001e50:	00800044 	movi	r2,1
 4001e54:	0007883a 	mov	r3,zero
 4001e58:	01c007c4 	movi	r7,31
 4001e5c:	00000306 	br	4001e6c <udivmodsi4+0x24>
 4001e60:	19c01326 	beq	r3,r7,4001eb0 <udivmodsi4+0x68>
 4001e64:	18c00044 	addi	r3,r3,1
 4001e68:	28000416 	blt	r5,zero,4001e7c <udivmodsi4+0x34>
 4001e6c:	294b883a 	add	r5,r5,r5
 4001e70:	1085883a 	add	r2,r2,r2
 4001e74:	293ffa36 	bltu	r5,r4,4001e60 <udivmodsi4+0x18>
 4001e78:	10000d26 	beq	r2,zero,4001eb0 <udivmodsi4+0x68>
 4001e7c:	0007883a 	mov	r3,zero
 4001e80:	21400236 	bltu	r4,r5,4001e8c <udivmodsi4+0x44>
 4001e84:	2149c83a 	sub	r4,r4,r5
 4001e88:	1886b03a 	or	r3,r3,r2
 4001e8c:	1004d07a 	srli	r2,r2,1
 4001e90:	280ad07a 	srli	r5,r5,1
 4001e94:	103ffa1e 	bne	r2,zero,4001e80 <udivmodsi4+0x38>
 4001e98:	30000226 	beq	r6,zero,4001ea4 <udivmodsi4+0x5c>
 4001e9c:	2005883a 	mov	r2,r4
 4001ea0:	f800283a 	ret
 4001ea4:	1809883a 	mov	r4,r3
 4001ea8:	2005883a 	mov	r2,r4
 4001eac:	f800283a 	ret
 4001eb0:	0007883a 	mov	r3,zero
 4001eb4:	003ff806 	br	4001e98 <udivmodsi4+0x50>
 4001eb8:	00800044 	movi	r2,1
 4001ebc:	0007883a 	mov	r3,zero
 4001ec0:	003fef06 	br	4001e80 <udivmodsi4+0x38>

04001ec4 <__divsi3>:
 4001ec4:	defffe04 	addi	sp,sp,-8
 4001ec8:	dc000015 	stw	r16,0(sp)
 4001ecc:	dfc00115 	stw	ra,4(sp)
 4001ed0:	0021883a 	mov	r16,zero
 4001ed4:	20000c16 	blt	r4,zero,4001f08 <__divsi3+0x44>
 4001ed8:	000d883a 	mov	r6,zero
 4001edc:	28000e16 	blt	r5,zero,4001f18 <__divsi3+0x54>
 4001ee0:	4001e480 	call	4001e48 <udivmodsi4>
 4001ee4:	1007883a 	mov	r3,r2
 4001ee8:	8005003a 	cmpeq	r2,r16,zero
 4001eec:	1000011e 	bne	r2,zero,4001ef4 <__divsi3+0x30>
 4001ef0:	00c7c83a 	sub	r3,zero,r3
 4001ef4:	1805883a 	mov	r2,r3
 4001ef8:	dfc00117 	ldw	ra,4(sp)
 4001efc:	dc000017 	ldw	r16,0(sp)
 4001f00:	dec00204 	addi	sp,sp,8
 4001f04:	f800283a 	ret
 4001f08:	0109c83a 	sub	r4,zero,r4
 4001f0c:	04000044 	movi	r16,1
 4001f10:	000d883a 	mov	r6,zero
 4001f14:	283ff20e 	bge	r5,zero,4001ee0 <__divsi3+0x1c>
 4001f18:	014bc83a 	sub	r5,zero,r5
 4001f1c:	8021003a 	cmpeq	r16,r16,zero
 4001f20:	003fef06 	br	4001ee0 <__divsi3+0x1c>

04001f24 <__modsi3>:
 4001f24:	deffff04 	addi	sp,sp,-4
 4001f28:	dfc00015 	stw	ra,0(sp)
 4001f2c:	01800044 	movi	r6,1
 4001f30:	2807883a 	mov	r3,r5
 4001f34:	20000416 	blt	r4,zero,4001f48 <__modsi3+0x24>
 4001f38:	28000c16 	blt	r5,zero,4001f6c <__modsi3+0x48>
 4001f3c:	dfc00017 	ldw	ra,0(sp)
 4001f40:	dec00104 	addi	sp,sp,4
 4001f44:	4001e481 	jmpi	4001e48 <udivmodsi4>
 4001f48:	0109c83a 	sub	r4,zero,r4
 4001f4c:	28000b16 	blt	r5,zero,4001f7c <__modsi3+0x58>
 4001f50:	180b883a 	mov	r5,r3
 4001f54:	01800044 	movi	r6,1
 4001f58:	4001e480 	call	4001e48 <udivmodsi4>
 4001f5c:	0085c83a 	sub	r2,zero,r2
 4001f60:	dfc00017 	ldw	ra,0(sp)
 4001f64:	dec00104 	addi	sp,sp,4
 4001f68:	f800283a 	ret
 4001f6c:	014bc83a 	sub	r5,zero,r5
 4001f70:	dfc00017 	ldw	ra,0(sp)
 4001f74:	dec00104 	addi	sp,sp,4
 4001f78:	4001e481 	jmpi	4001e48 <udivmodsi4>
 4001f7c:	0147c83a 	sub	r3,zero,r5
 4001f80:	003ff306 	br	4001f50 <__modsi3+0x2c>

04001f84 <__udivsi3>:
 4001f84:	000d883a 	mov	r6,zero
 4001f88:	4001e481 	jmpi	4001e48 <udivmodsi4>

04001f8c <__umodsi3>:
 4001f8c:	01800044 	movi	r6,1
 4001f90:	4001e481 	jmpi	4001e48 <udivmodsi4>

04001f94 <__clzsi2>:
 4001f94:	00bfffd4 	movui	r2,65535
 4001f98:	11000e36 	bltu	r2,r4,4001fd4 <__clzsi2+0x40>
 4001f9c:	00803fc4 	movi	r2,255
 4001fa0:	01400204 	movi	r5,8
 4001fa4:	0007883a 	mov	r3,zero
 4001fa8:	11001036 	bltu	r2,r4,4001fec <__clzsi2+0x58>
 4001fac:	000b883a 	mov	r5,zero
 4001fb0:	20c6d83a 	srl	r3,r4,r3
 4001fb4:	00810074 	movhi	r2,1025
 4001fb8:	10a2a304 	addi	r2,r2,-30068
 4001fbc:	1887883a 	add	r3,r3,r2
 4001fc0:	18800003 	ldbu	r2,0(r3)
 4001fc4:	00c00804 	movi	r3,32
 4001fc8:	2885883a 	add	r2,r5,r2
 4001fcc:	1885c83a 	sub	r2,r3,r2
 4001fd0:	f800283a 	ret
 4001fd4:	01400404 	movi	r5,16
 4001fd8:	00804034 	movhi	r2,256
 4001fdc:	10bfffc4 	addi	r2,r2,-1
 4001fe0:	2807883a 	mov	r3,r5
 4001fe4:	113ff22e 	bgeu	r2,r4,4001fb0 <__clzsi2+0x1c>
 4001fe8:	01400604 	movi	r5,24
 4001fec:	2807883a 	mov	r3,r5
 4001ff0:	20c6d83a 	srl	r3,r4,r3
 4001ff4:	00810074 	movhi	r2,1025
 4001ff8:	10a2a304 	addi	r2,r2,-30068
 4001ffc:	1887883a 	add	r3,r3,r2
 4002000:	18800003 	ldbu	r2,0(r3)
 4002004:	00c00804 	movi	r3,32
 4002008:	2885883a 	add	r2,r5,r2
 400200c:	1885c83a 	sub	r2,r3,r2
 4002010:	f800283a 	ret

04002014 <__pack_d>:
 4002014:	20c00017 	ldw	r3,0(r4)
 4002018:	defffd04 	addi	sp,sp,-12
 400201c:	dc000015 	stw	r16,0(sp)
 4002020:	dc800215 	stw	r18,8(sp)
 4002024:	dc400115 	stw	r17,4(sp)
 4002028:	00800044 	movi	r2,1
 400202c:	22000317 	ldw	r8,12(r4)
 4002030:	001f883a 	mov	r15,zero
 4002034:	22400417 	ldw	r9,16(r4)
 4002038:	24000117 	ldw	r16,4(r4)
 400203c:	10c0552e 	bgeu	r2,r3,4002194 <__pack_d+0x180>
 4002040:	00800104 	movi	r2,4
 4002044:	18804f26 	beq	r3,r2,4002184 <__pack_d+0x170>
 4002048:	00800084 	movi	r2,2
 400204c:	18800226 	beq	r3,r2,4002058 <__pack_d+0x44>
 4002050:	4244b03a 	or	r2,r8,r9
 4002054:	10001a1e 	bne	r2,zero,40020c0 <__pack_d+0xac>
 4002058:	000d883a 	mov	r6,zero
 400205c:	000f883a 	mov	r7,zero
 4002060:	0011883a 	mov	r8,zero
 4002064:	00800434 	movhi	r2,16
 4002068:	10bfffc4 	addi	r2,r2,-1
 400206c:	301d883a 	mov	r14,r6
 4002070:	3884703a 	and	r2,r7,r2
 4002074:	400a953a 	slli	r5,r8,20
 4002078:	79bffc2c 	andhi	r6,r15,65520
 400207c:	308cb03a 	or	r6,r6,r2
 4002080:	00e00434 	movhi	r3,32784
 4002084:	18ffffc4 	addi	r3,r3,-1
 4002088:	800497fa 	slli	r2,r16,31
 400208c:	30c6703a 	and	r3,r6,r3
 4002090:	1946b03a 	or	r3,r3,r5
 4002094:	01600034 	movhi	r5,32768
 4002098:	297fffc4 	addi	r5,r5,-1
 400209c:	194a703a 	and	r5,r3,r5
 40020a0:	288ab03a 	or	r5,r5,r2
 40020a4:	2807883a 	mov	r3,r5
 40020a8:	7005883a 	mov	r2,r14
 40020ac:	dc800217 	ldw	r18,8(sp)
 40020b0:	dc400117 	ldw	r17,4(sp)
 40020b4:	dc000017 	ldw	r16,0(sp)
 40020b8:	dec00304 	addi	sp,sp,12
 40020bc:	f800283a 	ret
 40020c0:	21000217 	ldw	r4,8(r4)
 40020c4:	00bf0084 	movi	r2,-1022
 40020c8:	20803f16 	blt	r4,r2,40021c8 <__pack_d+0x1b4>
 40020cc:	0080ffc4 	movi	r2,1023
 40020d0:	11002c16 	blt	r2,r4,4002184 <__pack_d+0x170>
 40020d4:	00803fc4 	movi	r2,255
 40020d8:	408c703a 	and	r6,r8,r2
 40020dc:	00802004 	movi	r2,128
 40020e0:	0007883a 	mov	r3,zero
 40020e4:	000f883a 	mov	r7,zero
 40020e8:	2280ffc4 	addi	r10,r4,1023
 40020ec:	30801e26 	beq	r6,r2,4002168 <__pack_d+0x154>
 40020f0:	00801fc4 	movi	r2,127
 40020f4:	4089883a 	add	r4,r8,r2
 40020f8:	220d803a 	cmpltu	r6,r4,r8
 40020fc:	324d883a 	add	r6,r6,r9
 4002100:	2011883a 	mov	r8,r4
 4002104:	3013883a 	mov	r9,r6
 4002108:	00880034 	movhi	r2,8192
 400210c:	10bfffc4 	addi	r2,r2,-1
 4002110:	12400d36 	bltu	r2,r9,4002148 <__pack_d+0x134>
 4002114:	4804963a 	slli	r2,r9,24
 4002118:	400cd23a 	srli	r6,r8,8
 400211c:	480ed23a 	srli	r7,r9,8
 4002120:	013fffc4 	movi	r4,-1
 4002124:	118cb03a 	or	r6,r2,r6
 4002128:	01400434 	movhi	r5,16
 400212c:	297fffc4 	addi	r5,r5,-1
 4002130:	3104703a 	and	r2,r6,r4
 4002134:	3946703a 	and	r3,r7,r5
 4002138:	5201ffcc 	andi	r8,r10,2047
 400213c:	100d883a 	mov	r6,r2
 4002140:	180f883a 	mov	r7,r3
 4002144:	003fc706 	br	4002064 <__pack_d+0x50>
 4002148:	480897fa 	slli	r4,r9,31
 400214c:	4004d07a 	srli	r2,r8,1
 4002150:	4806d07a 	srli	r3,r9,1
 4002154:	52800044 	addi	r10,r10,1
 4002158:	2084b03a 	or	r2,r4,r2
 400215c:	1011883a 	mov	r8,r2
 4002160:	1813883a 	mov	r9,r3
 4002164:	003feb06 	br	4002114 <__pack_d+0x100>
 4002168:	383fe11e 	bne	r7,zero,40020f0 <__pack_d+0xdc>
 400216c:	01004004 	movi	r4,256
 4002170:	4104703a 	and	r2,r8,r4
 4002174:	10c4b03a 	or	r2,r2,r3
 4002178:	103fe326 	beq	r2,zero,4002108 <__pack_d+0xf4>
 400217c:	3005883a 	mov	r2,r6
 4002180:	003fdc06 	br	40020f4 <__pack_d+0xe0>
 4002184:	000d883a 	mov	r6,zero
 4002188:	000f883a 	mov	r7,zero
 400218c:	0201ffc4 	movi	r8,2047
 4002190:	003fb406 	br	4002064 <__pack_d+0x50>
 4002194:	0005883a 	mov	r2,zero
 4002198:	00c00234 	movhi	r3,8
 400219c:	408cb03a 	or	r6,r8,r2
 40021a0:	48ceb03a 	or	r7,r9,r3
 40021a4:	013fffc4 	movi	r4,-1
 40021a8:	01400434 	movhi	r5,16
 40021ac:	297fffc4 	addi	r5,r5,-1
 40021b0:	3104703a 	and	r2,r6,r4
 40021b4:	3946703a 	and	r3,r7,r5
 40021b8:	100d883a 	mov	r6,r2
 40021bc:	180f883a 	mov	r7,r3
 40021c0:	0201ffc4 	movi	r8,2047
 40021c4:	003fa706 	br	4002064 <__pack_d+0x50>
 40021c8:	1109c83a 	sub	r4,r2,r4
 40021cc:	00800e04 	movi	r2,56
 40021d0:	11004316 	blt	r2,r4,40022e0 <__pack_d+0x2cc>
 40021d4:	21fff804 	addi	r7,r4,-32
 40021d8:	38004516 	blt	r7,zero,40022f0 <__pack_d+0x2dc>
 40021dc:	49d8d83a 	srl	r12,r9,r7
 40021e0:	001b883a 	mov	r13,zero
 40021e4:	0023883a 	mov	r17,zero
 40021e8:	01400044 	movi	r5,1
 40021ec:	0025883a 	mov	r18,zero
 40021f0:	38004716 	blt	r7,zero,4002310 <__pack_d+0x2fc>
 40021f4:	29d6983a 	sll	r11,r5,r7
 40021f8:	0015883a 	mov	r10,zero
 40021fc:	00bfffc4 	movi	r2,-1
 4002200:	5089883a 	add	r4,r10,r2
 4002204:	588b883a 	add	r5,r11,r2
 4002208:	228d803a 	cmpltu	r6,r4,r10
 400220c:	314b883a 	add	r5,r6,r5
 4002210:	4104703a 	and	r2,r8,r4
 4002214:	4946703a 	and	r3,r9,r5
 4002218:	10c4b03a 	or	r2,r2,r3
 400221c:	10000226 	beq	r2,zero,4002228 <__pack_d+0x214>
 4002220:	04400044 	movi	r17,1
 4002224:	0025883a 	mov	r18,zero
 4002228:	00803fc4 	movi	r2,255
 400222c:	644eb03a 	or	r7,r12,r17
 4002230:	3892703a 	and	r9,r7,r2
 4002234:	00802004 	movi	r2,128
 4002238:	6c90b03a 	or	r8,r13,r18
 400223c:	0015883a 	mov	r10,zero
 4002240:	48801626 	beq	r9,r2,400229c <__pack_d+0x288>
 4002244:	01001fc4 	movi	r4,127
 4002248:	3905883a 	add	r2,r7,r4
 400224c:	11cd803a 	cmpltu	r6,r2,r7
 4002250:	320d883a 	add	r6,r6,r8
 4002254:	100f883a 	mov	r7,r2
 4002258:	00840034 	movhi	r2,4096
 400225c:	10bfffc4 	addi	r2,r2,-1
 4002260:	3011883a 	mov	r8,r6
 4002264:	0007883a 	mov	r3,zero
 4002268:	11801b36 	bltu	r2,r6,40022d8 <__pack_d+0x2c4>
 400226c:	4004963a 	slli	r2,r8,24
 4002270:	3808d23a 	srli	r4,r7,8
 4002274:	400ad23a 	srli	r5,r8,8
 4002278:	1813883a 	mov	r9,r3
 400227c:	1108b03a 	or	r4,r2,r4
 4002280:	00bfffc4 	movi	r2,-1
 4002284:	00c00434 	movhi	r3,16
 4002288:	18ffffc4 	addi	r3,r3,-1
 400228c:	208c703a 	and	r6,r4,r2
 4002290:	28ce703a 	and	r7,r5,r3
 4002294:	4a01ffcc 	andi	r8,r9,2047
 4002298:	003f7206 	br	4002064 <__pack_d+0x50>
 400229c:	503fe91e 	bne	r10,zero,4002244 <__pack_d+0x230>
 40022a0:	01004004 	movi	r4,256
 40022a4:	3904703a 	and	r2,r7,r4
 40022a8:	0007883a 	mov	r3,zero
 40022ac:	10c4b03a 	or	r2,r2,r3
 40022b0:	10000626 	beq	r2,zero,40022cc <__pack_d+0x2b8>
 40022b4:	3a45883a 	add	r2,r7,r9
 40022b8:	11cd803a 	cmpltu	r6,r2,r7
 40022bc:	320d883a 	add	r6,r6,r8
 40022c0:	100f883a 	mov	r7,r2
 40022c4:	3011883a 	mov	r8,r6
 40022c8:	0007883a 	mov	r3,zero
 40022cc:	00840034 	movhi	r2,4096
 40022d0:	10bfffc4 	addi	r2,r2,-1
 40022d4:	123fe52e 	bgeu	r2,r8,400226c <__pack_d+0x258>
 40022d8:	00c00044 	movi	r3,1
 40022dc:	003fe306 	br	400226c <__pack_d+0x258>
 40022e0:	0009883a 	mov	r4,zero
 40022e4:	0013883a 	mov	r9,zero
 40022e8:	000b883a 	mov	r5,zero
 40022ec:	003fe406 	br	4002280 <__pack_d+0x26c>
 40022f0:	4a47883a 	add	r3,r9,r9
 40022f4:	008007c4 	movi	r2,31
 40022f8:	1105c83a 	sub	r2,r2,r4
 40022fc:	1886983a 	sll	r3,r3,r2
 4002300:	4118d83a 	srl	r12,r8,r4
 4002304:	491ad83a 	srl	r13,r9,r4
 4002308:	1b18b03a 	or	r12,r3,r12
 400230c:	003fb506 	br	40021e4 <__pack_d+0x1d0>
 4002310:	2806d07a 	srli	r3,r5,1
 4002314:	008007c4 	movi	r2,31
 4002318:	1105c83a 	sub	r2,r2,r4
 400231c:	1896d83a 	srl	r11,r3,r2
 4002320:	2914983a 	sll	r10,r5,r4
 4002324:	003fb506 	br	40021fc <__pack_d+0x1e8>

04002328 <__unpack_d>:
 4002328:	20c00117 	ldw	r3,4(r4)
 400232c:	22400017 	ldw	r9,0(r4)
 4002330:	00800434 	movhi	r2,16
 4002334:	10bfffc4 	addi	r2,r2,-1
 4002338:	1808d53a 	srli	r4,r3,20
 400233c:	180cd7fa 	srli	r6,r3,31
 4002340:	1894703a 	and	r10,r3,r2
 4002344:	2201ffcc 	andi	r8,r4,2047
 4002348:	281b883a 	mov	r13,r5
 400234c:	4817883a 	mov	r11,r9
 4002350:	29800115 	stw	r6,4(r5)
 4002354:	5019883a 	mov	r12,r10
 4002358:	40001e1e 	bne	r8,zero,40023d4 <__unpack_d+0xac>
 400235c:	4a84b03a 	or	r2,r9,r10
 4002360:	10001926 	beq	r2,zero,40023c8 <__unpack_d+0xa0>
 4002364:	4804d63a 	srli	r2,r9,24
 4002368:	500c923a 	slli	r6,r10,8
 400236c:	013f0084 	movi	r4,-1022
 4002370:	00c40034 	movhi	r3,4096
 4002374:	18ffffc4 	addi	r3,r3,-1
 4002378:	118cb03a 	or	r6,r2,r6
 400237c:	008000c4 	movi	r2,3
 4002380:	480a923a 	slli	r5,r9,8
 4002384:	68800015 	stw	r2,0(r13)
 4002388:	69000215 	stw	r4,8(r13)
 400238c:	19800b36 	bltu	r3,r6,40023bc <__unpack_d+0x94>
 4002390:	200f883a 	mov	r7,r4
 4002394:	1811883a 	mov	r8,r3
 4002398:	2945883a 	add	r2,r5,r5
 400239c:	1149803a 	cmpltu	r4,r2,r5
 40023a0:	3187883a 	add	r3,r6,r6
 40023a4:	20c9883a 	add	r4,r4,r3
 40023a8:	100b883a 	mov	r5,r2
 40023ac:	200d883a 	mov	r6,r4
 40023b0:	39ffffc4 	addi	r7,r7,-1
 40023b4:	413ff82e 	bgeu	r8,r4,4002398 <__unpack_d+0x70>
 40023b8:	69c00215 	stw	r7,8(r13)
 40023bc:	69800415 	stw	r6,16(r13)
 40023c0:	69400315 	stw	r5,12(r13)
 40023c4:	f800283a 	ret
 40023c8:	00800084 	movi	r2,2
 40023cc:	28800015 	stw	r2,0(r5)
 40023d0:	f800283a 	ret
 40023d4:	0081ffc4 	movi	r2,2047
 40023d8:	40800f26 	beq	r8,r2,4002418 <__unpack_d+0xf0>
 40023dc:	480cd63a 	srli	r6,r9,24
 40023e0:	5006923a 	slli	r3,r10,8
 40023e4:	4804923a 	slli	r2,r9,8
 40023e8:	0009883a 	mov	r4,zero
 40023ec:	30c6b03a 	or	r3,r6,r3
 40023f0:	01440034 	movhi	r5,4096
 40023f4:	110cb03a 	or	r6,r2,r4
 40023f8:	423f0044 	addi	r8,r8,-1023
 40023fc:	194eb03a 	or	r7,r3,r5
 4002400:	008000c4 	movi	r2,3
 4002404:	69c00415 	stw	r7,16(r13)
 4002408:	6a000215 	stw	r8,8(r13)
 400240c:	68800015 	stw	r2,0(r13)
 4002410:	69800315 	stw	r6,12(r13)
 4002414:	f800283a 	ret
 4002418:	4a84b03a 	or	r2,r9,r10
 400241c:	1000031e 	bne	r2,zero,400242c <__unpack_d+0x104>
 4002420:	00800104 	movi	r2,4
 4002424:	28800015 	stw	r2,0(r5)
 4002428:	f800283a 	ret
 400242c:	0009883a 	mov	r4,zero
 4002430:	01400234 	movhi	r5,8
 4002434:	4904703a 	and	r2,r9,r4
 4002438:	5146703a 	and	r3,r10,r5
 400243c:	10c4b03a 	or	r2,r2,r3
 4002440:	10000526 	beq	r2,zero,4002458 <__unpack_d+0x130>
 4002444:	00800044 	movi	r2,1
 4002448:	68800015 	stw	r2,0(r13)
 400244c:	6b000415 	stw	r12,16(r13)
 4002450:	6ac00315 	stw	r11,12(r13)
 4002454:	f800283a 	ret
 4002458:	68000015 	stw	zero,0(r13)
 400245c:	003ffb06 	br	400244c <__unpack_d+0x124>

04002460 <alt_irq_register>:
 */
 
int alt_irq_register (alt_u32 id, 
                      void* context, 
                      alt_isr_func handler)
{
 4002460:	deffef04 	addi	sp,sp,-68
 4002464:	df001015 	stw	fp,64(sp)
 4002468:	df001004 	addi	fp,sp,64
 400246c:	e13ffc15 	stw	r4,-16(fp)
 4002470:	e17ffd15 	stw	r5,-12(fp)
 4002474:	e1bffe15 	stw	r6,-8(fp)
  int rc = -EINVAL;  
 4002478:	00bffa84 	movi	r2,-22
 400247c:	e0bffb15 	stw	r2,-20(fp)
  alt_irq_context status;

  if (id < ALT_NIRQ)
 4002480:	e0bffc17 	ldw	r2,-16(fp)
 4002484:	10800828 	cmpgeui	r2,r2,32
 4002488:	1000601e 	bne	r2,zero,400260c <alt_irq_register+0x1ac>
static ALT_INLINE alt_irq_context ALT_ALWAYS_INLINE 
       alt_irq_disable_all (void)
{
  alt_irq_context context;

  NIOS2_READ_STATUS (context);
 400248c:	0005303a 	rdctl	r2,status
 4002490:	e0bff915 	stw	r2,-28(fp)

  NIOS2_WRITE_STATUS (context & ~NIOS2_STATUS_PIE_MSK);
 4002494:	e0fff917 	ldw	r3,-28(fp)
 4002498:	00bfff84 	movi	r2,-2
 400249c:	1884703a 	and	r2,r3,r2
 40024a0:	1001703a 	wrctl	status,r2
  
  return context;
 40024a4:	e0bff917 	ldw	r2,-28(fp)
     * interrupts are disabled while the handler tables are updated to ensure
     * that an interrupt doesn't occur while the tables are in an inconsistant
     * state.
     */

    status = alt_irq_disable_all ();
 40024a8:	e0bffa15 	stw	r2,-24(fp)

    alt_irq[id].handler = handler;
 40024ac:	e0bffc17 	ldw	r2,-16(fp)
 40024b0:	00c10074 	movhi	r3,1025
 40024b4:	18ec9804 	addi	r3,r3,-19872
 40024b8:	100490fa 	slli	r2,r2,3
 40024bc:	10c7883a 	add	r3,r2,r3
 40024c0:	e0bffe17 	ldw	r2,-8(fp)
 40024c4:	18800015 	stw	r2,0(r3)
    alt_irq[id].context = context;
 40024c8:	e0bffc17 	ldw	r2,-16(fp)
 40024cc:	00c10074 	movhi	r3,1025
 40024d0:	18ec9804 	addi	r3,r3,-19872
 40024d4:	100490fa 	slli	r2,r2,3
 40024d8:	10c5883a 	add	r2,r2,r3
 40024dc:	10c00104 	addi	r3,r2,4
 40024e0:	e0bffd17 	ldw	r2,-12(fp)
 40024e4:	18800015 	stw	r2,0(r3)

    rc = (handler) ? alt_irq_enable (id): alt_irq_disable (id);
 40024e8:	e0bffe17 	ldw	r2,-8(fp)
 40024ec:	1005003a 	cmpeq	r2,r2,zero
 40024f0:	1000201e 	bne	r2,zero,4002574 <alt_irq_register+0x114>
 40024f4:	e0bffc17 	ldw	r2,-16(fp)
 40024f8:	e0bff715 	stw	r2,-36(fp)
static ALT_INLINE alt_irq_context ALT_ALWAYS_INLINE 
       alt_irq_disable_all (void)
{
  alt_irq_context context;

  NIOS2_READ_STATUS (context);
 40024fc:	0005303a 	rdctl	r2,status
 4002500:	e0bff615 	stw	r2,-40(fp)

  NIOS2_WRITE_STATUS (context & ~NIOS2_STATUS_PIE_MSK);
 4002504:	e0fff617 	ldw	r3,-40(fp)
 4002508:	00bfff84 	movi	r2,-2
 400250c:	1884703a 	and	r2,r3,r2
 4002510:	1001703a 	wrctl	status,r2
  
  return context;
 4002514:	e0bff617 	ldw	r2,-40(fp)
static ALT_INLINE int ALT_ALWAYS_INLINE alt_irq_enable (alt_u32 id)
{
  alt_irq_context  status;
  extern volatile alt_u32 alt_irq_active;

  status = alt_irq_disable_all ();
 4002518:	e0bff815 	stw	r2,-32(fp)

  alt_irq_active |= (1 << id);
 400251c:	e0fff717 	ldw	r3,-36(fp)
 4002520:	00800044 	movi	r2,1
 4002524:	10c4983a 	sll	r2,r2,r3
 4002528:	1007883a 	mov	r3,r2
 400252c:	00810074 	movhi	r2,1025
 4002530:	10ac9104 	addi	r2,r2,-19900
 4002534:	10800017 	ldw	r2,0(r2)
 4002538:	1886b03a 	or	r3,r3,r2
 400253c:	00810074 	movhi	r2,1025
 4002540:	10ac9104 	addi	r2,r2,-19900
 4002544:	10c00015 	stw	r3,0(r2)
  NIOS2_WRITE_IENABLE (alt_irq_active);
 4002548:	00810074 	movhi	r2,1025
 400254c:	10ac9104 	addi	r2,r2,-19900
 4002550:	10800017 	ldw	r2,0(r2)
 4002554:	100170fa 	wrctl	ienable,r2
 4002558:	e0bff817 	ldw	r2,-32(fp)
 400255c:	e0bff515 	stw	r2,-44(fp)
  status &= ~NIOS2_STATUS_PIE_MSK;
  status |= (context & NIOS2_STATUS_PIE_MSK);
  
  NIOS2_WRITE_STATUS (status);
#else
  NIOS2_WRITE_STATUS (context);
 4002560:	e0bff517 	ldw	r2,-44(fp)
 4002564:	1001703a 	wrctl	status,r2

  alt_irq_enable_all(status);

  return 0;
 4002568:	0005883a 	mov	r2,zero
 400256c:	e0bfff15 	stw	r2,-4(fp)
 4002570:	00002006 	br	40025f4 <alt_irq_register+0x194>
 4002574:	e0bffc17 	ldw	r2,-16(fp)
 4002578:	e0bff315 	stw	r2,-52(fp)
static ALT_INLINE alt_irq_context ALT_ALWAYS_INLINE 
       alt_irq_disable_all (void)
{
  alt_irq_context context;

  NIOS2_READ_STATUS (context);
 400257c:	0005303a 	rdctl	r2,status
 4002580:	e0bff215 	stw	r2,-56(fp)

  NIOS2_WRITE_STATUS (context & ~NIOS2_STATUS_PIE_MSK);
 4002584:	e0fff217 	ldw	r3,-56(fp)
 4002588:	00bfff84 	movi	r2,-2
 400258c:	1884703a 	and	r2,r3,r2
 4002590:	1001703a 	wrctl	status,r2
  
  return context;
 4002594:	e0bff217 	ldw	r2,-56(fp)
static ALT_INLINE int ALT_ALWAYS_INLINE alt_irq_disable (alt_u32 id)
{
  alt_irq_context  status;
  extern volatile alt_u32 alt_irq_active;

  status = alt_irq_disable_all ();
 4002598:	e0bff415 	stw	r2,-48(fp)

  alt_irq_active &= ~(1 << id);
 400259c:	e0fff317 	ldw	r3,-52(fp)
 40025a0:	00800044 	movi	r2,1
 40025a4:	10c4983a 	sll	r2,r2,r3
 40025a8:	0084303a 	nor	r2,zero,r2
 40025ac:	1007883a 	mov	r3,r2
 40025b0:	00810074 	movhi	r2,1025
 40025b4:	10ac9104 	addi	r2,r2,-19900
 40025b8:	10800017 	ldw	r2,0(r2)
 40025bc:	1886703a 	and	r3,r3,r2
 40025c0:	00810074 	movhi	r2,1025
 40025c4:	10ac9104 	addi	r2,r2,-19900
 40025c8:	10c00015 	stw	r3,0(r2)
  NIOS2_WRITE_IENABLE (alt_irq_active);
 40025cc:	00810074 	movhi	r2,1025
 40025d0:	10ac9104 	addi	r2,r2,-19900
 40025d4:	10800017 	ldw	r2,0(r2)
 40025d8:	100170fa 	wrctl	ienable,r2
 40025dc:	e0bff417 	ldw	r2,-48(fp)
 40025e0:	e0bff115 	stw	r2,-60(fp)
  status &= ~NIOS2_STATUS_PIE_MSK;
  status |= (context & NIOS2_STATUS_PIE_MSK);
  
  NIOS2_WRITE_STATUS (status);
#else
  NIOS2_WRITE_STATUS (context);
 40025e4:	e0bff117 	ldw	r2,-60(fp)
 40025e8:	1001703a 	wrctl	status,r2

  alt_irq_enable_all(status);

  return 0;
 40025ec:	0005883a 	mov	r2,zero
 40025f0:	e0bfff15 	stw	r2,-4(fp)
 40025f4:	e0bfff17 	ldw	r2,-4(fp)
 40025f8:	e0bffb15 	stw	r2,-20(fp)
 40025fc:	e0bffa17 	ldw	r2,-24(fp)
 4002600:	e0bff015 	stw	r2,-64(fp)
 4002604:	e0bff017 	ldw	r2,-64(fp)
 4002608:	1001703a 	wrctl	status,r2

    alt_irq_enable_all(status);
  }
  return rc; 
 400260c:	e0bffb17 	ldw	r2,-20(fp)
}
 4002610:	e037883a 	mov	sp,fp
 4002614:	df000017 	ldw	fp,0(sp)
 4002618:	dec00104 	addi	sp,sp,4
 400261c:	f800283a 	ret

04002620 <alt_main>:
 * devices/filesystems/components in the system; and call the entry point for
 * the users application, i.e. main().
 */

void alt_main (void)
{
 4002620:	defffd04 	addi	sp,sp,-12
 4002624:	dfc00215 	stw	ra,8(sp)
 4002628:	df000115 	stw	fp,4(sp)
 400262c:	df000104 	addi	fp,sp,4
#endif

  /* ALT LOG - please see HAL/sys/alt_log_printf.h for details */
  ALT_LOG_PRINT_BOOT("[alt_main.c] Entering alt_main, calling alt_irq_init.\r\n");
  /* Initialize the interrupt controller. */
  alt_irq_init (NULL);
 4002630:	0009883a 	mov	r4,zero
 4002634:	40026bc0 	call	40026bc <alt_irq_init>
  ALT_LOG_PRINT_BOOT("[alt_main.c] Done OS Init, calling alt_sem_create.\r\n");
  ALT_SEM_CREATE (&alt_fd_list_lock, 1);

  /* Initialize the device drivers/software components. */
  ALT_LOG_PRINT_BOOT("[alt_main.c] Calling alt_sys_init.\r\n");
  alt_sys_init();
 4002638:	40026f00 	call	40026f0 <alt_sys_init>
   * devices be present (not equal to /dev/null) and if direct drivers
   * aren't being used.
   */

    ALT_LOG_PRINT_BOOT("[alt_main.c] Redirecting IO.\r\n");
    alt_io_redirect(ALT_STDOUT, ALT_STDIN, ALT_STDERR);
 400263c:	01010074 	movhi	r4,1025
 4002640:	2122e304 	addi	r4,r4,-29812
 4002644:	01410074 	movhi	r5,1025
 4002648:	2962e304 	addi	r5,r5,-29812
 400264c:	01810074 	movhi	r6,1025
 4002650:	31a2e304 	addi	r6,r6,-29812
 4002654:	40072940 	call	4007294 <alt_io_redirect>
  /* 
   * Call the C++ constructors 
   */

  ALT_LOG_PRINT_BOOT("[alt_main.c] Calling C++ constructors.\r\n");
  _do_ctors ();
 4002658:	4006d6c0 	call	4006d6c <_do_ctors>
   * redefined as _exit()). This is in the interest of reducing code footprint,
   * in that the atexit() overhead is removed when it's not needed.
   */

  ALT_LOG_PRINT_BOOT("[alt_main.c] Calling atexit.\r\n");
  atexit (_do_dtors);
 400265c:	01010034 	movhi	r4,1024
 4002660:	211b7404 	addi	r4,r4,28112
 4002664:	40085580 	call	4008558 <atexit>
  ALT_LOG_PRINT_BOOT("[alt_main.c] Calling main.\r\n");

#ifdef ALT_NO_EXIT
  main (alt_argc, alt_argv, alt_envp);
#else
  result = main (alt_argc, alt_argv, alt_envp);
 4002668:	d1200f17 	ldw	r4,-32708(gp)
 400266c:	d1601017 	ldw	r5,-32704(gp)
 4002670:	d1a01117 	ldw	r6,-32700(gp)
 4002674:	40003f40 	call	40003f4 <main>
 4002678:	e0bfff15 	stw	r2,-4(fp)
  close(STDOUT_FILENO);
 400267c:	01000044 	movi	r4,1
 4002680:	4006a580 	call	4006a58 <close>
  exit (result);
 4002684:	e13fff17 	ldw	r4,-4(fp)
 4002688:	400856c0 	call	400856c <exit>

0400268c <usleep>:
 400268c:	defffd04 	addi	sp,sp,-12
 4002690:	dfc00215 	stw	ra,8(sp)
 4002694:	df000115 	stw	fp,4(sp)
 4002698:	df000104 	addi	fp,sp,4
 400269c:	e13fff15 	stw	r4,-4(fp)
 40026a0:	e13fff17 	ldw	r4,-4(fp)
 40026a4:	400690c0 	call	400690c <alt_busy_sleep>
 40026a8:	e037883a 	mov	sp,fp
 40026ac:	dfc00117 	ldw	ra,4(sp)
 40026b0:	df000017 	ldw	fp,0(sp)
 40026b4:	dec00204 	addi	sp,sp,8
 40026b8:	f800283a 	ret

040026bc <alt_irq_init>:
 * The "base" parameter is ignored and only
 * present for backwards-compatibility.
 */

void alt_irq_init ( const void* base )
{
 40026bc:	defffd04 	addi	sp,sp,-12
 40026c0:	dfc00215 	stw	ra,8(sp)
 40026c4:	df000115 	stw	fp,4(sp)
 40026c8:	df000104 	addi	fp,sp,4
 40026cc:	e13fff15 	stw	r4,-4(fp)
    ALTERA_NIOS2_IRQ_INIT ( CPU, cpu);
 40026d0:	40077d40 	call	40077d4 <altera_nios2_irq_init>
 * alt_irq_cpu_enable_interrupts() enables the CPU to start taking interrupts.
 */
static ALT_INLINE void ALT_ALWAYS_INLINE 
       alt_irq_cpu_enable_interrupts ()
{
    NIOS2_WRITE_STATUS(NIOS2_STATUS_PIE_MSK
 40026d4:	00800044 	movi	r2,1
 40026d8:	1001703a 	wrctl	status,r2
    alt_irq_cpu_enable_interrupts();
}
 40026dc:	e037883a 	mov	sp,fp
 40026e0:	dfc00117 	ldw	ra,4(sp)
 40026e4:	df000017 	ldw	fp,0(sp)
 40026e8:	dec00204 	addi	sp,sp,8
 40026ec:	f800283a 	ret

040026f0 <alt_sys_init>:
 * Initialize the non-interrupt controller devices.
 * Called after alt_irq_init().
 */

void alt_sys_init( void )
{
 40026f0:	defffe04 	addi	sp,sp,-8
 40026f4:	dfc00115 	stw	ra,4(sp)
 40026f8:	df000015 	stw	fp,0(sp)
 40026fc:	d839883a 	mov	fp,sp
    ALTERA_AVALON_TIMER_INIT ( TIMER0, timer0);
 4002700:	01070804 	movi	r4,7200
 4002704:	000b883a 	mov	r5,zero
 4002708:	01800084 	movi	r6,2
 400270c:	01c0fa04 	movi	r7,1000
 4002710:	40059180 	call	4005918 <alt_avalon_timer_sc_init>
    ALTERA_AVALON_CFI_FLASH_INIT ( CFI_FLASH, cfi_flash);
 4002714:	01010074 	movhi	r4,1025
 4002718:	21266904 	addi	r4,r4,-26204
 400271c:	40027b80 	call	40027b8 <alt_flash_cfi_init>
    ALTERA_AVALON_EPCS_FLASH_CONTROLLER_INIT ( EPCS, epcs);
 4002720:	01010074 	movhi	r4,1025
 4002724:	21269f04 	addi	r4,r4,-25988
 4002728:	40044c80 	call	40044c8 <alt_epcs_flash_init>
    ALTERA_AVALON_JTAG_UART_INIT ( JTAG_UART, jtag_uart);
 400272c:	01010074 	movhi	r4,1025
 4002730:	2126da04 	addi	r4,r4,-25752
 4002734:	000b883a 	mov	r5,zero
 4002738:	018000c4 	movi	r6,3
 400273c:	4004f440 	call	4004f44 <altera_avalon_jtag_uart_init>
 4002740:	01010074 	movhi	r4,1025
 4002744:	2126d004 	addi	r4,r4,-25792
 4002748:	40027800 	call	4002780 <alt_dev_reg>
    ALTERA_AVALON_SYSID_INIT ( SYSID, sysid);
    ALTERA_AVALON_UART_INIT ( UART0, uart0);
 400274c:	01010074 	movhi	r4,1025
 4002750:	212af204 	addi	r4,r4,-21560
 4002754:	000b883a 	mov	r5,zero
 4002758:	01800044 	movi	r6,1
 400275c:	4005aa00 	call	4005aa0 <altera_avalon_uart_init>
 4002760:	01010074 	movhi	r4,1025
 4002764:	212ae804 	addi	r4,r4,-21600
 4002768:	40027800 	call	4002780 <alt_dev_reg>
}
 400276c:	e037883a 	mov	sp,fp
 4002770:	dfc00117 	ldw	ra,4(sp)
 4002774:	df000017 	ldw	fp,0(sp)
 4002778:	dec00204 	addi	sp,sp,8
 400277c:	f800283a 	ret

04002780 <alt_dev_reg>:
 */

extern int alt_fs_reg  (alt_dev* dev); 

static ALT_INLINE int alt_dev_reg (alt_dev* dev)
{
 4002780:	defffd04 	addi	sp,sp,-12
 4002784:	dfc00215 	stw	ra,8(sp)
 4002788:	df000115 	stw	fp,4(sp)
 400278c:	df000104 	addi	fp,sp,4
 4002790:	e13fff15 	stw	r4,-4(fp)
  extern alt_llist alt_dev_list;

  return alt_dev_llist_insert ((alt_dev_llist*) dev, &alt_dev_list);
 4002794:	e13fff17 	ldw	r4,-4(fp)
 4002798:	01410074 	movhi	r5,1025
 400279c:	296c8604 	addi	r5,r5,-19944
 40027a0:	4006c580 	call	4006c58 <alt_dev_llist_insert>
}
 40027a4:	e037883a 	mov	sp,fp
 40027a8:	dfc00117 	ldw	ra,4(sp)
 40027ac:	df000017 	ldw	fp,0(sp)
 40027b0:	dec00204 	addi	sp,sp,8
 40027b4:	f800283a 	ret

040027b8 <alt_flash_cfi_init>:
 40027b8:	defffc04 	addi	sp,sp,-16
 40027bc:	dfc00315 	stw	ra,12(sp)
 40027c0:	df000215 	stw	fp,8(sp)
 40027c4:	df000204 	addi	fp,sp,8
 40027c8:	e13fff15 	stw	r4,-4(fp)
 40027cc:	e03ffe15 	stw	zero,-8(fp)
 40027d0:	e13fff17 	ldw	r4,-4(fp)
 40027d4:	4003c400 	call	4003c40 <alt_read_cfi_width>
 40027d8:	e0bffe15 	stw	r2,-8(fp)
 40027dc:	e0bffe17 	ldw	r2,-8(fp)
 40027e0:	1004c03a 	cmpne	r2,r2,zero
 40027e4:	1000031e 	bne	r2,zero,40027f4 <alt_flash_cfi_init+0x3c>
 40027e8:	e13fff17 	ldw	r4,-4(fp)
 40027ec:	40033b80 	call	40033b8 <alt_set_flash_width_func>
 40027f0:	e0bffe15 	stw	r2,-8(fp)
 40027f4:	e0bffe17 	ldw	r2,-8(fp)
 40027f8:	1004c03a 	cmpne	r2,r2,zero
 40027fc:	1000031e 	bne	r2,zero,400280c <alt_flash_cfi_init+0x54>
 4002800:	e13fff17 	ldw	r4,-4(fp)
 4002804:	40036c00 	call	40036c0 <alt_read_cfi_table>
 4002808:	e0bffe15 	stw	r2,-8(fp)
 400280c:	e0bffe17 	ldw	r2,-8(fp)
 4002810:	1004c03a 	cmpne	r2,r2,zero
 4002814:	1000031e 	bne	r2,zero,4002824 <alt_flash_cfi_init+0x6c>
 4002818:	e13fff17 	ldw	r4,-4(fp)
 400281c:	40035980 	call	4003598 <alt_set_flash_algorithm_func>
 4002820:	e0bffe15 	stw	r2,-8(fp)
 4002824:	e0bffe17 	ldw	r2,-8(fp)
 4002828:	1004c03a 	cmpne	r2,r2,zero
 400282c:	1000031e 	bne	r2,zero,400283c <alt_flash_cfi_init+0x84>
 4002830:	e13fff17 	ldw	r4,-4(fp)
 4002834:	40028540 	call	4002854 <alt_flash_device_register>
 4002838:	e0bffe15 	stw	r2,-8(fp)
 400283c:	e0bffe17 	ldw	r2,-8(fp)
 4002840:	e037883a 	mov	sp,fp
 4002844:	dfc00117 	ldw	ra,4(sp)
 4002848:	df000017 	ldw	fp,0(sp)
 400284c:	dec00204 	addi	sp,sp,8
 4002850:	f800283a 	ret

04002854 <alt_flash_device_register>:
 4002854:	defffd04 	addi	sp,sp,-12
 4002858:	dfc00215 	stw	ra,8(sp)
 400285c:	df000115 	stw	fp,4(sp)
 4002860:	df000104 	addi	fp,sp,4
 4002864:	e13fff15 	stw	r4,-4(fp)
 4002868:	e13fff17 	ldw	r4,-4(fp)
 400286c:	01410074 	movhi	r5,1025
 4002870:	296c8a04 	addi	r5,r5,-19928
 4002874:	4006c580 	call	4006c58 <alt_dev_llist_insert>
 4002878:	e037883a 	mov	sp,fp
 400287c:	dfc00117 	ldw	ra,4(sp)
 4002880:	df000017 	ldw	fp,0(sp)
 4002884:	dec00204 	addi	sp,sp,8
 4002888:	f800283a 	ret

0400288c <alt_flash_cfi_write>:
 400288c:	deffef04 	addi	sp,sp,-68
 4002890:	dfc01015 	stw	ra,64(sp)
 4002894:	df000f15 	stw	fp,60(sp)
 4002898:	df000f04 	addi	fp,sp,60
 400289c:	e13ffa15 	stw	r4,-24(fp)
 40028a0:	e17ffb15 	stw	r5,-20(fp)
 40028a4:	e1bffc15 	stw	r6,-16(fp)
 40028a8:	e1fffd15 	stw	r7,-12(fp)
 40028ac:	e03ff915 	stw	zero,-28(fp)
 40028b0:	e0bffd17 	ldw	r2,-12(fp)
 40028b4:	e0bff515 	stw	r2,-44(fp)
 40028b8:	e0bffb17 	ldw	r2,-20(fp)
 40028bc:	e0bff315 	stw	r2,-52(fp)
 40028c0:	e0bffa17 	ldw	r2,-24(fp)
 40028c4:	e0bff215 	stw	r2,-56(fp)
 40028c8:	e03ff815 	stw	zero,-32(fp)
 40028cc:	00008e06 	br	4002b08 <alt_flash_cfi_write+0x27c>
 40028d0:	e0bff817 	ldw	r2,-32(fp)
 40028d4:	e0fff217 	ldw	r3,-56(fp)
 40028d8:	1004913a 	slli	r2,r2,4
 40028dc:	10c5883a 	add	r2,r2,r3
 40028e0:	10800d04 	addi	r2,r2,52
 40028e4:	10c00017 	ldw	r3,0(r2)
 40028e8:	e0bffb17 	ldw	r2,-20(fp)
 40028ec:	10c08316 	blt	r2,r3,4002afc <alt_flash_cfi_write+0x270>
 40028f0:	e0bff817 	ldw	r2,-32(fp)
 40028f4:	e0fff217 	ldw	r3,-56(fp)
 40028f8:	1004913a 	slli	r2,r2,4
 40028fc:	10c5883a 	add	r2,r2,r3
 4002900:	10800d04 	addi	r2,r2,52
 4002904:	11000017 	ldw	r4,0(r2)
 4002908:	e0bff817 	ldw	r2,-32(fp)
 400290c:	e0fff217 	ldw	r3,-56(fp)
 4002910:	1004913a 	slli	r2,r2,4
 4002914:	10c5883a 	add	r2,r2,r3
 4002918:	10800e04 	addi	r2,r2,56
 400291c:	10800017 	ldw	r2,0(r2)
 4002920:	2087883a 	add	r3,r4,r2
 4002924:	e0bffb17 	ldw	r2,-20(fp)
 4002928:	10c0740e 	bge	r2,r3,4002afc <alt_flash_cfi_write+0x270>
 400292c:	e0bff817 	ldw	r2,-32(fp)
 4002930:	e0fff217 	ldw	r3,-56(fp)
 4002934:	1004913a 	slli	r2,r2,4
 4002938:	10c5883a 	add	r2,r2,r3
 400293c:	10800d04 	addi	r2,r2,52
 4002940:	10800017 	ldw	r2,0(r2)
 4002944:	e0bff415 	stw	r2,-48(fp)
 4002948:	e03ff715 	stw	zero,-36(fp)
 400294c:	00006306 	br	4002adc <alt_flash_cfi_write+0x250>
 4002950:	e0fffb17 	ldw	r3,-20(fp)
 4002954:	e0bff417 	ldw	r2,-48(fp)
 4002958:	18805416 	blt	r3,r2,4002aac <alt_flash_cfi_write+0x220>
 400295c:	e0bff817 	ldw	r2,-32(fp)
 4002960:	e0fff217 	ldw	r3,-56(fp)
 4002964:	1004913a 	slli	r2,r2,4
 4002968:	10c5883a 	add	r2,r2,r3
 400296c:	10801004 	addi	r2,r2,64
 4002970:	10c00017 	ldw	r3,0(r2)
 4002974:	e0bff417 	ldw	r2,-48(fp)
 4002978:	1887883a 	add	r3,r3,r2
 400297c:	e0bffb17 	ldw	r2,-20(fp)
 4002980:	10c04a0e 	bge	r2,r3,4002aac <alt_flash_cfi_write+0x220>
 4002984:	e0bff817 	ldw	r2,-32(fp)
 4002988:	e0fff217 	ldw	r3,-56(fp)
 400298c:	1004913a 	slli	r2,r2,4
 4002990:	10c5883a 	add	r2,r2,r3
 4002994:	10801004 	addi	r2,r2,64
 4002998:	10c00017 	ldw	r3,0(r2)
 400299c:	e0bff417 	ldw	r2,-48(fp)
 40029a0:	1887883a 	add	r3,r3,r2
 40029a4:	e0bffb17 	ldw	r2,-20(fp)
 40029a8:	1885c83a 	sub	r2,r3,r2
 40029ac:	e0bff615 	stw	r2,-40(fp)
 40029b0:	e0bff617 	ldw	r2,-40(fp)
 40029b4:	e0bfff15 	stw	r2,-4(fp)
 40029b8:	e0fffd17 	ldw	r3,-12(fp)
 40029bc:	e0fffe15 	stw	r3,-8(fp)
 40029c0:	e0bfff17 	ldw	r2,-4(fp)
 40029c4:	e0fffe17 	ldw	r3,-8(fp)
 40029c8:	10c0020e 	bge	r2,r3,40029d4 <alt_flash_cfi_write+0x148>
 40029cc:	e0bfff17 	ldw	r2,-4(fp)
 40029d0:	e0bffe15 	stw	r2,-8(fp)
 40029d4:	e0fffe17 	ldw	r3,-8(fp)
 40029d8:	e0fff615 	stw	r3,-40(fp)
 40029dc:	e0bff217 	ldw	r2,-56(fp)
 40029e0:	10800a17 	ldw	r2,40(r2)
 40029e4:	1007883a 	mov	r3,r2
 40029e8:	e0bffb17 	ldw	r2,-20(fp)
 40029ec:	188b883a 	add	r5,r3,r2
 40029f0:	e1bff617 	ldw	r6,-40(fp)
 40029f4:	e13ffc17 	ldw	r4,-16(fp)
 40029f8:	40085a40 	call	40085a4 <memcmp>
 40029fc:	1005003a 	cmpeq	r2,r2,zero
 4002a00:	1000131e 	bne	r2,zero,4002a50 <alt_flash_cfi_write+0x1c4>
 4002a04:	e0bff217 	ldw	r2,-56(fp)
 4002a08:	10800817 	ldw	r2,32(r2)
 4002a0c:	e13ff217 	ldw	r4,-56(fp)
 4002a10:	e17ff417 	ldw	r5,-48(fp)
 4002a14:	103ee83a 	callr	r2
 4002a18:	e0bff915 	stw	r2,-28(fp)
 4002a1c:	e0bff917 	ldw	r2,-28(fp)
 4002a20:	1004c03a 	cmpne	r2,r2,zero
 4002a24:	10000a1e 	bne	r2,zero,4002a50 <alt_flash_cfi_write+0x1c4>
 4002a28:	e0bff217 	ldw	r2,-56(fp)
 4002a2c:	10c00917 	ldw	r3,36(r2)
 4002a30:	e13ff217 	ldw	r4,-56(fp)
 4002a34:	e0bff617 	ldw	r2,-40(fp)
 4002a38:	d8800015 	stw	r2,0(sp)
 4002a3c:	e17ff417 	ldw	r5,-48(fp)
 4002a40:	e1bffb17 	ldw	r6,-20(fp)
 4002a44:	e1fffc17 	ldw	r7,-16(fp)
 4002a48:	183ee83a 	callr	r3
 4002a4c:	e0bff915 	stw	r2,-28(fp)
 4002a50:	e0fffd17 	ldw	r3,-12(fp)
 4002a54:	e0bff617 	ldw	r2,-40(fp)
 4002a58:	18802f26 	beq	r3,r2,4002b18 <alt_flash_cfi_write+0x28c>
 4002a5c:	e0bff917 	ldw	r2,-28(fp)
 4002a60:	1004c03a 	cmpne	r2,r2,zero
 4002a64:	10002c1e 	bne	r2,zero,4002b18 <alt_flash_cfi_write+0x28c>
 4002a68:	e0fffd17 	ldw	r3,-12(fp)
 4002a6c:	e0bff617 	ldw	r2,-40(fp)
 4002a70:	1885c83a 	sub	r2,r3,r2
 4002a74:	e0bffd15 	stw	r2,-12(fp)
 4002a78:	e0bff817 	ldw	r2,-32(fp)
 4002a7c:	e0fff217 	ldw	r3,-56(fp)
 4002a80:	1004913a 	slli	r2,r2,4
 4002a84:	10c5883a 	add	r2,r2,r3
 4002a88:	10801004 	addi	r2,r2,64
 4002a8c:	10c00017 	ldw	r3,0(r2)
 4002a90:	e0bff417 	ldw	r2,-48(fp)
 4002a94:	1885883a 	add	r2,r3,r2
 4002a98:	e0bffb15 	stw	r2,-20(fp)
 4002a9c:	e0fffc17 	ldw	r3,-16(fp)
 4002aa0:	e0bff617 	ldw	r2,-40(fp)
 4002aa4:	1885883a 	add	r2,r3,r2
 4002aa8:	e0bffc15 	stw	r2,-16(fp)
 4002aac:	e0bff817 	ldw	r2,-32(fp)
 4002ab0:	e0fff217 	ldw	r3,-56(fp)
 4002ab4:	1004913a 	slli	r2,r2,4
 4002ab8:	10c5883a 	add	r2,r2,r3
 4002abc:	10801004 	addi	r2,r2,64
 4002ac0:	10c00017 	ldw	r3,0(r2)
 4002ac4:	e0bff417 	ldw	r2,-48(fp)
 4002ac8:	10c5883a 	add	r2,r2,r3
 4002acc:	e0bff415 	stw	r2,-48(fp)
 4002ad0:	e0bff717 	ldw	r2,-36(fp)
 4002ad4:	10800044 	addi	r2,r2,1
 4002ad8:	e0bff715 	stw	r2,-36(fp)
 4002adc:	e0bff817 	ldw	r2,-32(fp)
 4002ae0:	e0fff217 	ldw	r3,-56(fp)
 4002ae4:	1004913a 	slli	r2,r2,4
 4002ae8:	10c5883a 	add	r2,r2,r3
 4002aec:	10800f04 	addi	r2,r2,60
 4002af0:	10c00017 	ldw	r3,0(r2)
 4002af4:	e0bff717 	ldw	r2,-36(fp)
 4002af8:	10ff9516 	blt	r2,r3,4002950 <alt_flash_cfi_write+0xc4>
 4002afc:	e0bff817 	ldw	r2,-32(fp)
 4002b00:	10800044 	addi	r2,r2,1
 4002b04:	e0bff815 	stw	r2,-32(fp)
 4002b08:	e0bff217 	ldw	r2,-56(fp)
 4002b0c:	10c00c17 	ldw	r3,48(r2)
 4002b10:	e0bff817 	ldw	r2,-32(fp)
 4002b14:	10ff6e16 	blt	r2,r3,40028d0 <alt_flash_cfi_write+0x44>
 4002b18:	e0bff217 	ldw	r2,-56(fp)
 4002b1c:	10800a17 	ldw	r2,40(r2)
 4002b20:	1007883a 	mov	r3,r2
 4002b24:	e0bff317 	ldw	r2,-52(fp)
 4002b28:	1889883a 	add	r4,r3,r2
 4002b2c:	e17ff517 	ldw	r5,-44(fp)
 4002b30:	4006bb40 	call	4006bb4 <alt_dcache_flush>
 4002b34:	e0bff917 	ldw	r2,-28(fp)
 4002b38:	e037883a 	mov	sp,fp
 4002b3c:	dfc00117 	ldw	ra,4(sp)
 4002b40:	df000017 	ldw	fp,0(sp)
 4002b44:	dec00204 	addi	sp,sp,8
 4002b48:	f800283a 	ret

04002b4c <alt_flash_cfi_get_info>:
 4002b4c:	defffa04 	addi	sp,sp,-24
 4002b50:	df000515 	stw	fp,20(sp)
 4002b54:	df000504 	addi	fp,sp,20
 4002b58:	e13ffd15 	stw	r4,-12(fp)
 4002b5c:	e17ffe15 	stw	r5,-8(fp)
 4002b60:	e1bfff15 	stw	r6,-4(fp)
 4002b64:	e03ffc15 	stw	zero,-16(fp)
 4002b68:	e0bffd17 	ldw	r2,-12(fp)
 4002b6c:	e0bffb15 	stw	r2,-20(fp)
 4002b70:	e0bffb17 	ldw	r2,-20(fp)
 4002b74:	10c00c17 	ldw	r3,48(r2)
 4002b78:	e0bfff17 	ldw	r2,-4(fp)
 4002b7c:	10c00015 	stw	r3,0(r2)
 4002b80:	e0bffb17 	ldw	r2,-20(fp)
 4002b84:	10800c17 	ldw	r2,48(r2)
 4002b88:	1004c03a 	cmpne	r2,r2,zero
 4002b8c:	1000031e 	bne	r2,zero,4002b9c <alt_flash_cfi_get_info+0x50>
 4002b90:	00bffec4 	movi	r2,-5
 4002b94:	e0bffc15 	stw	r2,-16(fp)
 4002b98:	00000b06 	br	4002bc8 <alt_flash_cfi_get_info+0x7c>
 4002b9c:	e0bffb17 	ldw	r2,-20(fp)
 4002ba0:	10800c17 	ldw	r2,48(r2)
 4002ba4:	10800250 	cmplti	r2,r2,9
 4002ba8:	1000031e 	bne	r2,zero,4002bb8 <alt_flash_cfi_get_info+0x6c>
 4002bac:	00bffd04 	movi	r2,-12
 4002bb0:	e0bffc15 	stw	r2,-16(fp)
 4002bb4:	00000406 	br	4002bc8 <alt_flash_cfi_get_info+0x7c>
 4002bb8:	e0bffb17 	ldw	r2,-20(fp)
 4002bbc:	10c00d04 	addi	r3,r2,52
 4002bc0:	e0bffe17 	ldw	r2,-8(fp)
 4002bc4:	10c00015 	stw	r3,0(r2)
 4002bc8:	e0bffc17 	ldw	r2,-16(fp)
 4002bcc:	e037883a 	mov	sp,fp
 4002bd0:	df000017 	ldw	fp,0(sp)
 4002bd4:	dec00104 	addi	sp,sp,4
 4002bd8:	f800283a 	ret

04002bdc <alt_flash_cfi_read>:
 4002bdc:	defff904 	addi	sp,sp,-28
 4002be0:	dfc00615 	stw	ra,24(sp)
 4002be4:	df000515 	stw	fp,20(sp)
 4002be8:	df000504 	addi	fp,sp,20
 4002bec:	e13ffc15 	stw	r4,-16(fp)
 4002bf0:	e17ffd15 	stw	r5,-12(fp)
 4002bf4:	e1bffe15 	stw	r6,-8(fp)
 4002bf8:	e1ffff15 	stw	r7,-4(fp)
 4002bfc:	e0bffc17 	ldw	r2,-16(fp)
 4002c00:	e0bffb15 	stw	r2,-20(fp)
 4002c04:	e0bffb17 	ldw	r2,-20(fp)
 4002c08:	10800a17 	ldw	r2,40(r2)
 4002c0c:	1007883a 	mov	r3,r2
 4002c10:	e0bffd17 	ldw	r2,-12(fp)
 4002c14:	1887883a 	add	r3,r3,r2
 4002c18:	e1bfff17 	ldw	r6,-4(fp)
 4002c1c:	e0bffe17 	ldw	r2,-8(fp)
 4002c20:	1009883a 	mov	r4,r2
 4002c24:	180b883a 	mov	r5,r3
 4002c28:	40086180 	call	4008618 <memcpy>
 4002c2c:	0005883a 	mov	r2,zero
 4002c30:	e037883a 	mov	sp,fp
 4002c34:	dfc00117 	ldw	ra,4(sp)
 4002c38:	df000017 	ldw	fp,0(sp)
 4002c3c:	dec00204 	addi	sp,sp,8
 4002c40:	f800283a 	ret

04002c44 <alt_write_value_to_flash>:
 4002c44:	defffa04 	addi	sp,sp,-24
 4002c48:	df000515 	stw	fp,20(sp)
 4002c4c:	df000504 	addi	fp,sp,20
 4002c50:	e13ffd15 	stw	r4,-12(fp)
 4002c54:	e17ffe15 	stw	r5,-8(fp)
 4002c58:	e1bfff15 	stw	r6,-4(fp)
 4002c5c:	e0bffd17 	ldw	r2,-12(fp)
 4002c60:	10802e17 	ldw	r2,184(r2)
 4002c64:	10800058 	cmpnei	r2,r2,1
 4002c68:	10000b1e 	bne	r2,zero,4002c98 <alt_write_value_to_flash+0x54>
 4002c6c:	e0bffd17 	ldw	r2,-12(fp)
 4002c70:	10800a17 	ldw	r2,40(r2)
 4002c74:	1007883a 	mov	r3,r2
 4002c78:	e0bffe17 	ldw	r2,-8(fp)
 4002c7c:	1889883a 	add	r4,r3,r2
 4002c80:	e0bfff17 	ldw	r2,-4(fp)
 4002c84:	10800003 	ldbu	r2,0(r2)
 4002c88:	10c03fcc 	andi	r3,r2,255
 4002c8c:	2005883a 	mov	r2,r4
 4002c90:	10c00025 	stbio	r3,0(r2)
 4002c94:	00004006 	br	4002d98 <alt_write_value_to_flash+0x154>
 4002c98:	e0bffd17 	ldw	r2,-12(fp)
 4002c9c:	10802e17 	ldw	r2,184(r2)
 4002ca0:	10800098 	cmpnei	r2,r2,2
 4002ca4:	1000151e 	bne	r2,zero,4002cfc <alt_write_value_to_flash+0xb8>
 4002ca8:	e0bfff17 	ldw	r2,-4(fp)
 4002cac:	10800003 	ldbu	r2,0(r2)
 4002cb0:	10803fcc 	andi	r2,r2,255
 4002cb4:	e0bffc0d 	sth	r2,-16(fp)
 4002cb8:	e0bfff17 	ldw	r2,-4(fp)
 4002cbc:	10800044 	addi	r2,r2,1
 4002cc0:	10800003 	ldbu	r2,0(r2)
 4002cc4:	10803fcc 	andi	r2,r2,255
 4002cc8:	1004923a 	slli	r2,r2,8
 4002ccc:	1007883a 	mov	r3,r2
 4002cd0:	e0bffc0b 	ldhu	r2,-16(fp)
 4002cd4:	1884b03a 	or	r2,r3,r2
 4002cd8:	e0bffc0d 	sth	r2,-16(fp)
 4002cdc:	e0bffd17 	ldw	r2,-12(fp)
 4002ce0:	10800a17 	ldw	r2,40(r2)
 4002ce4:	1007883a 	mov	r3,r2
 4002ce8:	e0bffe17 	ldw	r2,-8(fp)
 4002cec:	1885883a 	add	r2,r3,r2
 4002cf0:	e0fffc0b 	ldhu	r3,-16(fp)
 4002cf4:	10c0002d 	sthio	r3,0(r2)
 4002cf8:	00002706 	br	4002d98 <alt_write_value_to_flash+0x154>
 4002cfc:	e0bffd17 	ldw	r2,-12(fp)
 4002d00:	10802e17 	ldw	r2,184(r2)
 4002d04:	10800118 	cmpnei	r2,r2,4
 4002d08:	1000231e 	bne	r2,zero,4002d98 <alt_write_value_to_flash+0x154>
 4002d0c:	e0bfff17 	ldw	r2,-4(fp)
 4002d10:	10800003 	ldbu	r2,0(r2)
 4002d14:	10803fcc 	andi	r2,r2,255
 4002d18:	e0bffb15 	stw	r2,-20(fp)
 4002d1c:	e0bfff17 	ldw	r2,-4(fp)
 4002d20:	10800044 	addi	r2,r2,1
 4002d24:	10800003 	ldbu	r2,0(r2)
 4002d28:	10803fcc 	andi	r2,r2,255
 4002d2c:	1006923a 	slli	r3,r2,8
 4002d30:	e0bffb17 	ldw	r2,-20(fp)
 4002d34:	10c4b03a 	or	r2,r2,r3
 4002d38:	e0bffb15 	stw	r2,-20(fp)
 4002d3c:	e0bfff17 	ldw	r2,-4(fp)
 4002d40:	10800084 	addi	r2,r2,2
 4002d44:	10800003 	ldbu	r2,0(r2)
 4002d48:	10803fcc 	andi	r2,r2,255
 4002d4c:	1006943a 	slli	r3,r2,16
 4002d50:	e0bffb17 	ldw	r2,-20(fp)
 4002d54:	10c4b03a 	or	r2,r2,r3
 4002d58:	e0bffb15 	stw	r2,-20(fp)
 4002d5c:	e0bfff17 	ldw	r2,-4(fp)
 4002d60:	108000c4 	addi	r2,r2,3
 4002d64:	10800003 	ldbu	r2,0(r2)
 4002d68:	10803fcc 	andi	r2,r2,255
 4002d6c:	1006963a 	slli	r3,r2,24
 4002d70:	e0bffb17 	ldw	r2,-20(fp)
 4002d74:	10c4b03a 	or	r2,r2,r3
 4002d78:	e0bffb15 	stw	r2,-20(fp)
 4002d7c:	e0bffd17 	ldw	r2,-12(fp)
 4002d80:	10800a17 	ldw	r2,40(r2)
 4002d84:	1007883a 	mov	r3,r2
 4002d88:	e0bffe17 	ldw	r2,-8(fp)
 4002d8c:	1885883a 	add	r2,r3,r2
 4002d90:	e0fffb17 	ldw	r3,-20(fp)
 4002d94:	10c00035 	stwio	r3,0(r2)
 4002d98:	e037883a 	mov	sp,fp
 4002d9c:	df000017 	ldw	fp,0(sp)
 4002da0:	dec00104 	addi	sp,sp,4
 4002da4:	f800283a 	ret

04002da8 <alt_flash_program_block>:
 4002da8:	defff304 	addi	sp,sp,-52
 4002dac:	dfc00c15 	stw	ra,48(sp)
 4002db0:	df000b15 	stw	fp,44(sp)
 4002db4:	df000b04 	addi	fp,sp,44
 4002db8:	e13ffc15 	stw	r4,-16(fp)
 4002dbc:	e17ffd15 	stw	r5,-12(fp)
 4002dc0:	e1bffe15 	stw	r6,-8(fp)
 4002dc4:	e1ffff15 	stw	r7,-4(fp)
 4002dc8:	e03ffa15 	stw	zero,-24(fp)
 4002dcc:	e0bffc17 	ldw	r2,-16(fp)
 4002dd0:	10800a17 	ldw	r2,40(r2)
 4002dd4:	1007883a 	mov	r3,r2
 4002dd8:	e0bffd17 	ldw	r2,-12(fp)
 4002ddc:	1885883a 	add	r2,r3,r2
 4002de0:	1009883a 	mov	r4,r2
 4002de4:	e0bffc17 	ldw	r2,-16(fp)
 4002de8:	11402e17 	ldw	r5,184(r2)
 4002dec:	4001f240 	call	4001f24 <__modsi3>
 4002df0:	e0bff915 	stw	r2,-28(fp)
 4002df4:	e0bff917 	ldw	r2,-28(fp)
 4002df8:	1005003a 	cmpeq	r2,r2,zero
 4002dfc:	10003a1e 	bne	r2,zero,4002ee8 <alt_flash_program_block+0x140>
 4002e00:	e0bffc17 	ldw	r2,-16(fp)
 4002e04:	10c02e17 	ldw	r3,184(r2)
 4002e08:	e0bff917 	ldw	r2,-28(fp)
 4002e0c:	1885c83a 	sub	r2,r3,r2
 4002e10:	e0bff815 	stw	r2,-32(fp)
 4002e14:	e03ff615 	stw	zero,-40(fp)
 4002e18:	00001206 	br	4002e64 <alt_flash_program_block+0xbc>
 4002e1c:	e17ff617 	ldw	r5,-40(fp)
 4002e20:	e0bffc17 	ldw	r2,-16(fp)
 4002e24:	10800a17 	ldw	r2,40(r2)
 4002e28:	1009883a 	mov	r4,r2
 4002e2c:	e0fffd17 	ldw	r3,-12(fp)
 4002e30:	e0bff917 	ldw	r2,-28(fp)
 4002e34:	1887c83a 	sub	r3,r3,r2
 4002e38:	e0bff617 	ldw	r2,-40(fp)
 4002e3c:	1885883a 	add	r2,r3,r2
 4002e40:	2085883a 	add	r2,r4,r2
 4002e44:	10800023 	ldbuio	r2,0(r2)
 4002e48:	1007883a 	mov	r3,r2
 4002e4c:	e0bffb04 	addi	r2,fp,-20
 4002e50:	1145883a 	add	r2,r2,r5
 4002e54:	10c00005 	stb	r3,0(r2)
 4002e58:	e0bff617 	ldw	r2,-40(fp)
 4002e5c:	10800044 	addi	r2,r2,1
 4002e60:	e0bff615 	stw	r2,-40(fp)
 4002e64:	e0fff617 	ldw	r3,-40(fp)
 4002e68:	e0bff917 	ldw	r2,-28(fp)
 4002e6c:	18bfeb16 	blt	r3,r2,4002e1c <alt_flash_program_block+0x74>
 4002e70:	e03ff615 	stw	zero,-40(fp)
 4002e74:	00000e06 	br	4002eb0 <alt_flash_program_block+0x108>
 4002e78:	e0fff917 	ldw	r3,-28(fp)
 4002e7c:	e0bff617 	ldw	r2,-40(fp)
 4002e80:	1889883a 	add	r4,r3,r2
 4002e84:	e0bff617 	ldw	r2,-40(fp)
 4002e88:	1007883a 	mov	r3,r2
 4002e8c:	e0bffe17 	ldw	r2,-8(fp)
 4002e90:	1885883a 	add	r2,r3,r2
 4002e94:	10c00003 	ldbu	r3,0(r2)
 4002e98:	e0bffb04 	addi	r2,fp,-20
 4002e9c:	1105883a 	add	r2,r2,r4
 4002ea0:	10c00005 	stb	r3,0(r2)
 4002ea4:	e0bff617 	ldw	r2,-40(fp)
 4002ea8:	10800044 	addi	r2,r2,1
 4002eac:	e0bff615 	stw	r2,-40(fp)
 4002eb0:	e0fff617 	ldw	r3,-40(fp)
 4002eb4:	e0bff817 	ldw	r2,-32(fp)
 4002eb8:	18bfef16 	blt	r3,r2,4002e78 <alt_flash_program_block+0xd0>
 4002ebc:	e0fffd17 	ldw	r3,-12(fp)
 4002ec0:	e0bff917 	ldw	r2,-28(fp)
 4002ec4:	188bc83a 	sub	r5,r3,r2
 4002ec8:	e1bffb04 	addi	r6,fp,-20
 4002ecc:	e0800217 	ldw	r2,8(fp)
 4002ed0:	e13ffc17 	ldw	r4,-16(fp)
 4002ed4:	103ee83a 	callr	r2
 4002ed8:	e0bffa15 	stw	r2,-24(fp)
 4002edc:	e0bff817 	ldw	r2,-32(fp)
 4002ee0:	e0bff615 	stw	r2,-40(fp)
 4002ee4:	00000106 	br	4002eec <alt_flash_program_block+0x144>
 4002ee8:	e03ff615 	stw	zero,-40(fp)
 4002eec:	e0fffd17 	ldw	r3,-12(fp)
 4002ef0:	e0bfff17 	ldw	r2,-4(fp)
 4002ef4:	1889883a 	add	r4,r3,r2
 4002ef8:	e0bffc17 	ldw	r2,-16(fp)
 4002efc:	11402e17 	ldw	r5,184(r2)
 4002f00:	4001f240 	call	4001f24 <__modsi3>
 4002f04:	e0bff715 	stw	r2,-36(fp)
 4002f08:	00001006 	br	4002f4c <alt_flash_program_block+0x1a4>
 4002f0c:	e0fffd17 	ldw	r3,-12(fp)
 4002f10:	e0bff617 	ldw	r2,-40(fp)
 4002f14:	188b883a 	add	r5,r3,r2
 4002f18:	e0bff617 	ldw	r2,-40(fp)
 4002f1c:	1007883a 	mov	r3,r2
 4002f20:	e0bffe17 	ldw	r2,-8(fp)
 4002f24:	188d883a 	add	r6,r3,r2
 4002f28:	e0800217 	ldw	r2,8(fp)
 4002f2c:	e13ffc17 	ldw	r4,-16(fp)
 4002f30:	103ee83a 	callr	r2
 4002f34:	e0bffa15 	stw	r2,-24(fp)
 4002f38:	e0bffc17 	ldw	r2,-16(fp)
 4002f3c:	10c02e17 	ldw	r3,184(r2)
 4002f40:	e0bff617 	ldw	r2,-40(fp)
 4002f44:	10c5883a 	add	r2,r2,r3
 4002f48:	e0bff615 	stw	r2,-40(fp)
 4002f4c:	e0bffa17 	ldw	r2,-24(fp)
 4002f50:	1004c03a 	cmpne	r2,r2,zero
 4002f54:	1000051e 	bne	r2,zero,4002f6c <alt_flash_program_block+0x1c4>
 4002f58:	e0ffff17 	ldw	r3,-4(fp)
 4002f5c:	e0bff717 	ldw	r2,-36(fp)
 4002f60:	1887c83a 	sub	r3,r3,r2
 4002f64:	e0bff617 	ldw	r2,-40(fp)
 4002f68:	10ffe816 	blt	r2,r3,4002f0c <alt_flash_program_block+0x164>
 4002f6c:	e0bff717 	ldw	r2,-36(fp)
 4002f70:	1005003a 	cmpeq	r2,r2,zero
 4002f74:	10003c1e 	bne	r2,zero,4003068 <alt_flash_program_block+0x2c0>
 4002f78:	e0bffa17 	ldw	r2,-24(fp)
 4002f7c:	1004c03a 	cmpne	r2,r2,zero
 4002f80:	1000391e 	bne	r2,zero,4003068 <alt_flash_program_block+0x2c0>
 4002f84:	e0bffc17 	ldw	r2,-16(fp)
 4002f88:	10c02e17 	ldw	r3,184(r2)
 4002f8c:	e0bff717 	ldw	r2,-36(fp)
 4002f90:	1885c83a 	sub	r2,r3,r2
 4002f94:	e0bff915 	stw	r2,-28(fp)
 4002f98:	e03ff515 	stw	zero,-44(fp)
 4002f9c:	00000e06 	br	4002fd8 <alt_flash_program_block+0x230>
 4002fa0:	e13ff517 	ldw	r4,-44(fp)
 4002fa4:	e0bff617 	ldw	r2,-40(fp)
 4002fa8:	1007883a 	mov	r3,r2
 4002fac:	e0bffe17 	ldw	r2,-8(fp)
 4002fb0:	1887883a 	add	r3,r3,r2
 4002fb4:	e0bff517 	ldw	r2,-44(fp)
 4002fb8:	1885883a 	add	r2,r3,r2
 4002fbc:	10c00003 	ldbu	r3,0(r2)
 4002fc0:	e0bffb04 	addi	r2,fp,-20
 4002fc4:	1105883a 	add	r2,r2,r4
 4002fc8:	10c00005 	stb	r3,0(r2)
 4002fcc:	e0bff517 	ldw	r2,-44(fp)
 4002fd0:	10800044 	addi	r2,r2,1
 4002fd4:	e0bff515 	stw	r2,-44(fp)
 4002fd8:	e0fff517 	ldw	r3,-44(fp)
 4002fdc:	e0bff717 	ldw	r2,-36(fp)
 4002fe0:	18bfef16 	blt	r3,r2,4002fa0 <alt_flash_program_block+0x1f8>
 4002fe4:	e03ff515 	stw	zero,-44(fp)
 4002fe8:	00001406 	br	400303c <alt_flash_program_block+0x294>
 4002fec:	e0fff717 	ldw	r3,-36(fp)
 4002ff0:	e0bff517 	ldw	r2,-44(fp)
 4002ff4:	188b883a 	add	r5,r3,r2
 4002ff8:	e0bffc17 	ldw	r2,-16(fp)
 4002ffc:	10800a17 	ldw	r2,40(r2)
 4003000:	1009883a 	mov	r4,r2
 4003004:	e0fffd17 	ldw	r3,-12(fp)
 4003008:	e0bfff17 	ldw	r2,-4(fp)
 400300c:	1887883a 	add	r3,r3,r2
 4003010:	e0bff517 	ldw	r2,-44(fp)
 4003014:	1885883a 	add	r2,r3,r2
 4003018:	2085883a 	add	r2,r4,r2
 400301c:	10800023 	ldbuio	r2,0(r2)
 4003020:	1007883a 	mov	r3,r2
 4003024:	e0bffb04 	addi	r2,fp,-20
 4003028:	1145883a 	add	r2,r2,r5
 400302c:	10c00005 	stb	r3,0(r2)
 4003030:	e0bff517 	ldw	r2,-44(fp)
 4003034:	10800044 	addi	r2,r2,1
 4003038:	e0bff515 	stw	r2,-44(fp)
 400303c:	e0fff517 	ldw	r3,-44(fp)
 4003040:	e0bff917 	ldw	r2,-28(fp)
 4003044:	18bfe916 	blt	r3,r2,4002fec <alt_flash_program_block+0x244>
 4003048:	e0fffd17 	ldw	r3,-12(fp)
 400304c:	e0bff617 	ldw	r2,-40(fp)
 4003050:	188b883a 	add	r5,r3,r2
 4003054:	e1bffb04 	addi	r6,fp,-20
 4003058:	e0800217 	ldw	r2,8(fp)
 400305c:	e13ffc17 	ldw	r4,-16(fp)
 4003060:	103ee83a 	callr	r2
 4003064:	e0bffa15 	stw	r2,-24(fp)
 4003068:	e0bffa17 	ldw	r2,-24(fp)
 400306c:	e037883a 	mov	sp,fp
 4003070:	dfc00117 	ldw	ra,4(sp)
 4003074:	df000017 	ldw	fp,0(sp)
 4003078:	dec00204 	addi	sp,sp,8
 400307c:	f800283a 	ret

04003080 <alt_read_query_entry_8bit>:
 4003080:	defffd04 	addi	sp,sp,-12
 4003084:	df000215 	stw	fp,8(sp)
 4003088:	df000204 	addi	fp,sp,8
 400308c:	e13ffe15 	stw	r4,-8(fp)
 4003090:	e17fff15 	stw	r5,-4(fp)
 4003094:	e0bffe17 	ldw	r2,-8(fp)
 4003098:	10800a17 	ldw	r2,40(r2)
 400309c:	1007883a 	mov	r3,r2
 40030a0:	e0bfff17 	ldw	r2,-4(fp)
 40030a4:	1885883a 	add	r2,r3,r2
 40030a8:	10800023 	ldbuio	r2,0(r2)
 40030ac:	10803fcc 	andi	r2,r2,255
 40030b0:	e037883a 	mov	sp,fp
 40030b4:	df000017 	ldw	fp,0(sp)
 40030b8:	dec00104 	addi	sp,sp,4
 40030bc:	f800283a 	ret

040030c0 <alt_read_query_entry_16bit>:
 40030c0:	defffd04 	addi	sp,sp,-12
 40030c4:	df000215 	stw	fp,8(sp)
 40030c8:	df000204 	addi	fp,sp,8
 40030cc:	e13ffe15 	stw	r4,-8(fp)
 40030d0:	e17fff15 	stw	r5,-4(fp)
 40030d4:	e0bffe17 	ldw	r2,-8(fp)
 40030d8:	10800a17 	ldw	r2,40(r2)
 40030dc:	1007883a 	mov	r3,r2
 40030e0:	e0bfff17 	ldw	r2,-4(fp)
 40030e4:	1085883a 	add	r2,r2,r2
 40030e8:	1885883a 	add	r2,r3,r2
 40030ec:	1080002b 	ldhuio	r2,0(r2)
 40030f0:	10803fcc 	andi	r2,r2,255
 40030f4:	e037883a 	mov	sp,fp
 40030f8:	df000017 	ldw	fp,0(sp)
 40030fc:	dec00104 	addi	sp,sp,4
 4003100:	f800283a 	ret

04003104 <alt_read_query_entry_32bit>:
 4003104:	defffd04 	addi	sp,sp,-12
 4003108:	df000215 	stw	fp,8(sp)
 400310c:	df000204 	addi	fp,sp,8
 4003110:	e13ffe15 	stw	r4,-8(fp)
 4003114:	e17fff15 	stw	r5,-4(fp)
 4003118:	e0bffe17 	ldw	r2,-8(fp)
 400311c:	10800a17 	ldw	r2,40(r2)
 4003120:	1007883a 	mov	r3,r2
 4003124:	e0bfff17 	ldw	r2,-4(fp)
 4003128:	1085883a 	add	r2,r2,r2
 400312c:	1085883a 	add	r2,r2,r2
 4003130:	1885883a 	add	r2,r3,r2
 4003134:	10800037 	ldwio	r2,0(r2)
 4003138:	10803fcc 	andi	r2,r2,255
 400313c:	e037883a 	mov	sp,fp
 4003140:	df000017 	ldw	fp,0(sp)
 4003144:	dec00104 	addi	sp,sp,4
 4003148:	f800283a 	ret

0400314c <alt_write_flash_command_8bit_device_8bit_mode>:
 400314c:	defffc04 	addi	sp,sp,-16
 4003150:	df000315 	stw	fp,12(sp)
 4003154:	df000304 	addi	fp,sp,12
 4003158:	e13ffd15 	stw	r4,-12(fp)
 400315c:	e17ffe15 	stw	r5,-8(fp)
 4003160:	e1bfff05 	stb	r6,-4(fp)
 4003164:	e0fffd17 	ldw	r3,-12(fp)
 4003168:	e0bffe17 	ldw	r2,-8(fp)
 400316c:	1885883a 	add	r2,r3,r2
 4003170:	e0ffff03 	ldbu	r3,-4(fp)
 4003174:	10c00025 	stbio	r3,0(r2)
 4003178:	e037883a 	mov	sp,fp
 400317c:	df000017 	ldw	fp,0(sp)
 4003180:	dec00104 	addi	sp,sp,4
 4003184:	f800283a 	ret

04003188 <alt_write_flash_command_16bit_device_8bit_mode>:
 4003188:	defffc04 	addi	sp,sp,-16
 400318c:	df000315 	stw	fp,12(sp)
 4003190:	df000304 	addi	fp,sp,12
 4003194:	e13ffd15 	stw	r4,-12(fp)
 4003198:	e17ffe15 	stw	r5,-8(fp)
 400319c:	e1bfff05 	stb	r6,-4(fp)
 40031a0:	e0bffe17 	ldw	r2,-8(fp)
 40031a4:	1080004c 	andi	r2,r2,1
 40031a8:	10803fcc 	andi	r2,r2,255
 40031ac:	1005003a 	cmpeq	r2,r2,zero
 40031b0:	1000081e 	bne	r2,zero,40031d4 <alt_write_flash_command_16bit_device_8bit_mode+0x4c>
 40031b4:	e0bffe17 	ldw	r2,-8(fp)
 40031b8:	1085883a 	add	r2,r2,r2
 40031bc:	1007883a 	mov	r3,r2
 40031c0:	e0bffd17 	ldw	r2,-12(fp)
 40031c4:	1885883a 	add	r2,r3,r2
 40031c8:	e0ffff03 	ldbu	r3,-4(fp)
 40031cc:	10c00025 	stbio	r3,0(r2)
 40031d0:	00000806 	br	40031f4 <alt_write_flash_command_16bit_device_8bit_mode+0x6c>
 40031d4:	e0bffe17 	ldw	r2,-8(fp)
 40031d8:	1085883a 	add	r2,r2,r2
 40031dc:	1007883a 	mov	r3,r2
 40031e0:	e0bffd17 	ldw	r2,-12(fp)
 40031e4:	1885883a 	add	r2,r3,r2
 40031e8:	10800044 	addi	r2,r2,1
 40031ec:	e0ffff03 	ldbu	r3,-4(fp)
 40031f0:	10c00025 	stbio	r3,0(r2)
 40031f4:	e037883a 	mov	sp,fp
 40031f8:	df000017 	ldw	fp,0(sp)
 40031fc:	dec00104 	addi	sp,sp,4
 4003200:	f800283a 	ret

04003204 <alt_write_flash_command_32bit_device_8bit_mode>:
 4003204:	defffc04 	addi	sp,sp,-16
 4003208:	df000315 	stw	fp,12(sp)
 400320c:	df000304 	addi	fp,sp,12
 4003210:	e13ffd15 	stw	r4,-12(fp)
 4003214:	e17ffe15 	stw	r5,-8(fp)
 4003218:	e1bfff05 	stb	r6,-4(fp)
 400321c:	e0bffe17 	ldw	r2,-8(fp)
 4003220:	1085883a 	add	r2,r2,r2
 4003224:	1085883a 	add	r2,r2,r2
 4003228:	1007883a 	mov	r3,r2
 400322c:	e0bffd17 	ldw	r2,-12(fp)
 4003230:	1885883a 	add	r2,r3,r2
 4003234:	e0ffff03 	ldbu	r3,-4(fp)
 4003238:	10c00025 	stbio	r3,0(r2)
 400323c:	e037883a 	mov	sp,fp
 4003240:	df000017 	ldw	fp,0(sp)
 4003244:	dec00104 	addi	sp,sp,4
 4003248:	f800283a 	ret

0400324c <alt_write_flash_command_16bit_device_16bit_mode>:
 400324c:	defffc04 	addi	sp,sp,-16
 4003250:	df000315 	stw	fp,12(sp)
 4003254:	df000304 	addi	fp,sp,12
 4003258:	e13ffd15 	stw	r4,-12(fp)
 400325c:	e17ffe15 	stw	r5,-8(fp)
 4003260:	e1bfff05 	stb	r6,-4(fp)
 4003264:	e0bffe17 	ldw	r2,-8(fp)
 4003268:	1085883a 	add	r2,r2,r2
 400326c:	1007883a 	mov	r3,r2
 4003270:	e0bffd17 	ldw	r2,-12(fp)
 4003274:	1885883a 	add	r2,r3,r2
 4003278:	e0ffff03 	ldbu	r3,-4(fp)
 400327c:	10c0002d 	sthio	r3,0(r2)
 4003280:	e037883a 	mov	sp,fp
 4003284:	df000017 	ldw	fp,0(sp)
 4003288:	dec00104 	addi	sp,sp,4
 400328c:	f800283a 	ret

04003290 <alt_write_flash_command_32bit_device_16bit_mode>:
 4003290:	defffc04 	addi	sp,sp,-16
 4003294:	df000315 	stw	fp,12(sp)
 4003298:	df000304 	addi	fp,sp,12
 400329c:	e13ffd15 	stw	r4,-12(fp)
 40032a0:	e17ffe15 	stw	r5,-8(fp)
 40032a4:	e1bfff05 	stb	r6,-4(fp)
 40032a8:	e0bffe17 	ldw	r2,-8(fp)
 40032ac:	1085883a 	add	r2,r2,r2
 40032b0:	1085883a 	add	r2,r2,r2
 40032b4:	1007883a 	mov	r3,r2
 40032b8:	e0bffd17 	ldw	r2,-12(fp)
 40032bc:	1885883a 	add	r2,r3,r2
 40032c0:	e0ffff03 	ldbu	r3,-4(fp)
 40032c4:	10c0002d 	sthio	r3,0(r2)
 40032c8:	e037883a 	mov	sp,fp
 40032cc:	df000017 	ldw	fp,0(sp)
 40032d0:	dec00104 	addi	sp,sp,4
 40032d4:	f800283a 	ret

040032d8 <alt_write_flash_command_32bit_device_32bit_mode>:
 40032d8:	defffc04 	addi	sp,sp,-16
 40032dc:	df000315 	stw	fp,12(sp)
 40032e0:	df000304 	addi	fp,sp,12
 40032e4:	e13ffd15 	stw	r4,-12(fp)
 40032e8:	e17ffe15 	stw	r5,-8(fp)
 40032ec:	e1bfff05 	stb	r6,-4(fp)
 40032f0:	e0bffe17 	ldw	r2,-8(fp)
 40032f4:	1085883a 	add	r2,r2,r2
 40032f8:	1085883a 	add	r2,r2,r2
 40032fc:	1007883a 	mov	r3,r2
 4003300:	e0bffd17 	ldw	r2,-12(fp)
 4003304:	1885883a 	add	r2,r3,r2
 4003308:	e0ffff03 	ldbu	r3,-4(fp)
 400330c:	10c00035 	stwio	r3,0(r2)
 4003310:	e037883a 	mov	sp,fp
 4003314:	df000017 	ldw	fp,0(sp)
 4003318:	dec00104 	addi	sp,sp,4
 400331c:	f800283a 	ret

04003320 <alt_write_native_8bit>:
 4003320:	defffd04 	addi	sp,sp,-12
 4003324:	df000215 	stw	fp,8(sp)
 4003328:	df000204 	addi	fp,sp,8
 400332c:	e13ffe15 	stw	r4,-8(fp)
 4003330:	e17fff15 	stw	r5,-4(fp)
 4003334:	e0bfff17 	ldw	r2,-4(fp)
 4003338:	10c03fcc 	andi	r3,r2,255
 400333c:	e0bffe17 	ldw	r2,-8(fp)
 4003340:	10c00025 	stbio	r3,0(r2)
 4003344:	e037883a 	mov	sp,fp
 4003348:	df000017 	ldw	fp,0(sp)
 400334c:	dec00104 	addi	sp,sp,4
 4003350:	f800283a 	ret

04003354 <alt_write_native_16bit>:
 4003354:	defffd04 	addi	sp,sp,-12
 4003358:	df000215 	stw	fp,8(sp)
 400335c:	df000204 	addi	fp,sp,8
 4003360:	e13ffe15 	stw	r4,-8(fp)
 4003364:	e17fff15 	stw	r5,-4(fp)
 4003368:	e0bfff17 	ldw	r2,-4(fp)
 400336c:	10ffffcc 	andi	r3,r2,65535
 4003370:	e0bffe17 	ldw	r2,-8(fp)
 4003374:	10c0002d 	sthio	r3,0(r2)
 4003378:	e037883a 	mov	sp,fp
 400337c:	df000017 	ldw	fp,0(sp)
 4003380:	dec00104 	addi	sp,sp,4
 4003384:	f800283a 	ret

04003388 <alt_write_native_32bit>:
 4003388:	defffd04 	addi	sp,sp,-12
 400338c:	df000215 	stw	fp,8(sp)
 4003390:	df000204 	addi	fp,sp,8
 4003394:	e13ffe15 	stw	r4,-8(fp)
 4003398:	e17fff15 	stw	r5,-4(fp)
 400339c:	e0ffff17 	ldw	r3,-4(fp)
 40033a0:	e0bffe17 	ldw	r2,-8(fp)
 40033a4:	10c00035 	stwio	r3,0(r2)
 40033a8:	e037883a 	mov	sp,fp
 40033ac:	df000017 	ldw	fp,0(sp)
 40033b0:	dec00104 	addi	sp,sp,4
 40033b4:	f800283a 	ret

040033b8 <alt_set_flash_width_func>:
 40033b8:	defffb04 	addi	sp,sp,-20
 40033bc:	df000415 	stw	fp,16(sp)
 40033c0:	df000404 	addi	fp,sp,16
 40033c4:	e13ffd15 	stw	r4,-12(fp)
 40033c8:	e03ffc15 	stw	zero,-16(fp)
 40033cc:	e0bffd17 	ldw	r2,-12(fp)
 40033d0:	10802e17 	ldw	r2,184(r2)
 40033d4:	e0bfff15 	stw	r2,-4(fp)
 40033d8:	e0ffff17 	ldw	r3,-4(fp)
 40033dc:	188000a0 	cmpeqi	r2,r3,2
 40033e0:	1000261e 	bne	r2,zero,400347c <alt_set_flash_width_func+0xc4>
 40033e4:	e0ffff17 	ldw	r3,-4(fp)
 40033e8:	18800120 	cmpeqi	r2,r3,4
 40033ec:	1000391e 	bne	r2,zero,40034d4 <alt_set_flash_width_func+0x11c>
 40033f0:	e0ffff17 	ldw	r3,-4(fp)
 40033f4:	18800060 	cmpeqi	r2,r3,1
 40033f8:	1000011e 	bne	r2,zero,4003400 <alt_set_flash_width_func+0x48>
 40033fc:	00003e06 	br	40034f8 <alt_set_flash_width_func+0x140>
 4003400:	e0fffd17 	ldw	r3,-12(fp)
 4003404:	00810034 	movhi	r2,1024
 4003408:	108cc804 	addi	r2,r2,13088
 400340c:	18803515 	stw	r2,212(r3)
 4003410:	e0bffd17 	ldw	r2,-12(fp)
 4003414:	10802f17 	ldw	r2,188(r2)
 4003418:	10800058 	cmpnei	r2,r2,1
 400341c:	1000051e 	bne	r2,zero,4003434 <alt_set_flash_width_func+0x7c>
 4003420:	e0fffd17 	ldw	r3,-12(fp)
 4003424:	00810034 	movhi	r2,1024
 4003428:	108c5304 	addi	r2,r2,12620
 400342c:	18803315 	stw	r2,204(r3)
 4003430:	00003306 	br	4003500 <alt_set_flash_width_func+0x148>
 4003434:	e0bffd17 	ldw	r2,-12(fp)
 4003438:	10802f17 	ldw	r2,188(r2)
 400343c:	10800098 	cmpnei	r2,r2,2
 4003440:	1000051e 	bne	r2,zero,4003458 <alt_set_flash_width_func+0xa0>
 4003444:	e0fffd17 	ldw	r3,-12(fp)
 4003448:	00810034 	movhi	r2,1024
 400344c:	108c6204 	addi	r2,r2,12680
 4003450:	18803315 	stw	r2,204(r3)
 4003454:	00002a06 	br	4003500 <alt_set_flash_width_func+0x148>
 4003458:	e0bffd17 	ldw	r2,-12(fp)
 400345c:	10802f17 	ldw	r2,188(r2)
 4003460:	10800118 	cmpnei	r2,r2,4
 4003464:	1000261e 	bne	r2,zero,4003500 <alt_set_flash_width_func+0x148>
 4003468:	e0fffd17 	ldw	r3,-12(fp)
 400346c:	00810034 	movhi	r2,1024
 4003470:	108c8104 	addi	r2,r2,12804
 4003474:	18803315 	stw	r2,204(r3)
 4003478:	00002106 	br	4003500 <alt_set_flash_width_func+0x148>
 400347c:	e0fffd17 	ldw	r3,-12(fp)
 4003480:	00810034 	movhi	r2,1024
 4003484:	108cd504 	addi	r2,r2,13140
 4003488:	18803515 	stw	r2,212(r3)
 400348c:	e0bffd17 	ldw	r2,-12(fp)
 4003490:	10802f17 	ldw	r2,188(r2)
 4003494:	10800098 	cmpnei	r2,r2,2
 4003498:	1000051e 	bne	r2,zero,40034b0 <alt_set_flash_width_func+0xf8>
 400349c:	e0fffd17 	ldw	r3,-12(fp)
 40034a0:	00810034 	movhi	r2,1024
 40034a4:	108c9304 	addi	r2,r2,12876
 40034a8:	18803315 	stw	r2,204(r3)
 40034ac:	00001406 	br	4003500 <alt_set_flash_width_func+0x148>
 40034b0:	e0bffd17 	ldw	r2,-12(fp)
 40034b4:	10802f17 	ldw	r2,188(r2)
 40034b8:	10800118 	cmpnei	r2,r2,4
 40034bc:	1000101e 	bne	r2,zero,4003500 <alt_set_flash_width_func+0x148>
 40034c0:	e0fffd17 	ldw	r3,-12(fp)
 40034c4:	00810034 	movhi	r2,1024
 40034c8:	108ca404 	addi	r2,r2,12944
 40034cc:	18803315 	stw	r2,204(r3)
 40034d0:	00000b06 	br	4003500 <alt_set_flash_width_func+0x148>
 40034d4:	e0fffd17 	ldw	r3,-12(fp)
 40034d8:	00810034 	movhi	r2,1024
 40034dc:	108ce204 	addi	r2,r2,13192
 40034e0:	18803515 	stw	r2,212(r3)
 40034e4:	e0fffd17 	ldw	r3,-12(fp)
 40034e8:	00810034 	movhi	r2,1024
 40034ec:	108cb604 	addi	r2,r2,13016
 40034f0:	18803315 	stw	r2,204(r3)
 40034f4:	00000206 	br	4003500 <alt_set_flash_width_func+0x148>
 40034f8:	00bffcc4 	movi	r2,-13
 40034fc:	e0bffc15 	stw	r2,-16(fp)
 4003500:	e0bffc17 	ldw	r2,-16(fp)
 4003504:	1004c03a 	cmpne	r2,r2,zero
 4003508:	10001e1e 	bne	r2,zero,4003584 <alt_set_flash_width_func+0x1cc>
 400350c:	e0bffd17 	ldw	r2,-12(fp)
 4003510:	10802f17 	ldw	r2,188(r2)
 4003514:	e0bffe15 	stw	r2,-8(fp)
 4003518:	e0fffe17 	ldw	r3,-8(fp)
 400351c:	188000a0 	cmpeqi	r2,r3,2
 4003520:	10000c1e 	bne	r2,zero,4003554 <alt_set_flash_width_func+0x19c>
 4003524:	e0fffe17 	ldw	r3,-8(fp)
 4003528:	18800120 	cmpeqi	r2,r3,4
 400352c:	10000e1e 	bne	r2,zero,4003568 <alt_set_flash_width_func+0x1b0>
 4003530:	e0fffe17 	ldw	r3,-8(fp)
 4003534:	18800060 	cmpeqi	r2,r3,1
 4003538:	1000011e 	bne	r2,zero,4003540 <alt_set_flash_width_func+0x188>
 400353c:	00000f06 	br	400357c <alt_set_flash_width_func+0x1c4>
 4003540:	e0fffd17 	ldw	r3,-12(fp)
 4003544:	00810034 	movhi	r2,1024
 4003548:	108c2004 	addi	r2,r2,12416
 400354c:	18803415 	stw	r2,208(r3)
 4003550:	00000c06 	br	4003584 <alt_set_flash_width_func+0x1cc>
 4003554:	e0fffd17 	ldw	r3,-12(fp)
 4003558:	00810034 	movhi	r2,1024
 400355c:	108c3004 	addi	r2,r2,12480
 4003560:	18803415 	stw	r2,208(r3)
 4003564:	00000706 	br	4003584 <alt_set_flash_width_func+0x1cc>
 4003568:	e0fffd17 	ldw	r3,-12(fp)
 400356c:	00810034 	movhi	r2,1024
 4003570:	108c4104 	addi	r2,r2,12548
 4003574:	18803415 	stw	r2,208(r3)
 4003578:	00000206 	br	4003584 <alt_set_flash_width_func+0x1cc>
 400357c:	00bffcc4 	movi	r2,-13
 4003580:	e0bffc15 	stw	r2,-16(fp)
 4003584:	e0bffc17 	ldw	r2,-16(fp)
 4003588:	e037883a 	mov	sp,fp
 400358c:	df000017 	ldw	fp,0(sp)
 4003590:	dec00104 	addi	sp,sp,4
 4003594:	f800283a 	ret

04003598 <alt_set_flash_algorithm_func>:
 4003598:	defffc04 	addi	sp,sp,-16
 400359c:	df000315 	stw	fp,12(sp)
 40035a0:	df000304 	addi	fp,sp,12
 40035a4:	e13ffe15 	stw	r4,-8(fp)
 40035a8:	e03ffd15 	stw	zero,-12(fp)
 40035ac:	e0bffe17 	ldw	r2,-8(fp)
 40035b0:	10802d17 	ldw	r2,180(r2)
 40035b4:	e0bfff15 	stw	r2,-4(fp)
 40035b8:	e0ffff17 	ldw	r3,-4(fp)
 40035bc:	188000a0 	cmpeqi	r2,r3,2
 40035c0:	1000071e 	bne	r2,zero,40035e0 <alt_set_flash_algorithm_func+0x48>
 40035c4:	e0ffff17 	ldw	r3,-4(fp)
 40035c8:	188000e0 	cmpeqi	r2,r3,3
 40035cc:	10000d1e 	bne	r2,zero,4003604 <alt_set_flash_algorithm_func+0x6c>
 40035d0:	e0ffff17 	ldw	r3,-4(fp)
 40035d4:	18800060 	cmpeqi	r2,r3,1
 40035d8:	10000a1e 	bne	r2,zero,4003604 <alt_set_flash_algorithm_func+0x6c>
 40035dc:	00001206 	br	4003628 <alt_set_flash_algorithm_func+0x90>
 40035e0:	e0fffe17 	ldw	r3,-8(fp)
 40035e4:	00810034 	movhi	r2,1024
 40035e8:	109e1704 	addi	r2,r2,30812
 40035ec:	18800815 	stw	r2,32(r3)
 40035f0:	e0fffe17 	ldw	r3,-8(fp)
 40035f4:	00810034 	movhi	r2,1024
 40035f8:	109dfd04 	addi	r2,r2,30708
 40035fc:	18800915 	stw	r2,36(r3)
 4003600:	00000b06 	br	4003630 <alt_set_flash_algorithm_func+0x98>
 4003604:	e0fffe17 	ldw	r3,-8(fp)
 4003608:	00810034 	movhi	r2,1024
 400360c:	109f3604 	addi	r2,r2,31960
 4003610:	18800815 	stw	r2,32(r3)
 4003614:	e0fffe17 	ldw	r3,-8(fp)
 4003618:	00810034 	movhi	r2,1024
 400361c:	109f1504 	addi	r2,r2,31828
 4003620:	18800915 	stw	r2,36(r3)
 4003624:	00000206 	br	4003630 <alt_set_flash_algorithm_func+0x98>
 4003628:	00bffec4 	movi	r2,-5
 400362c:	e0bffd15 	stw	r2,-12(fp)
 4003630:	e0bffd17 	ldw	r2,-12(fp)
 4003634:	e037883a 	mov	sp,fp
 4003638:	df000017 	ldw	fp,0(sp)
 400363c:	dec00104 	addi	sp,sp,4
 4003640:	f800283a 	ret

04003644 <alt_read_16bit_query_entry>:
 4003644:	defffb04 	addi	sp,sp,-20
 4003648:	dfc00415 	stw	ra,16(sp)
 400364c:	df000315 	stw	fp,12(sp)
 4003650:	df000304 	addi	fp,sp,12
 4003654:	e13ffe15 	stw	r4,-8(fp)
 4003658:	e17fff15 	stw	r5,-4(fp)
 400365c:	e0bffe17 	ldw	r2,-8(fp)
 4003660:	10803417 	ldw	r2,208(r2)
 4003664:	e13ffe17 	ldw	r4,-8(fp)
 4003668:	e17fff17 	ldw	r5,-4(fp)
 400366c:	103ee83a 	callr	r2
 4003670:	10803fcc 	andi	r2,r2,255
 4003674:	e0bffd0d 	sth	r2,-12(fp)
 4003678:	e0bffe17 	ldw	r2,-8(fp)
 400367c:	10c03417 	ldw	r3,208(r2)
 4003680:	e0bfff17 	ldw	r2,-4(fp)
 4003684:	11400044 	addi	r5,r2,1
 4003688:	e13ffe17 	ldw	r4,-8(fp)
 400368c:	183ee83a 	callr	r3
 4003690:	10803fcc 	andi	r2,r2,255
 4003694:	1004923a 	slli	r2,r2,8
 4003698:	1007883a 	mov	r3,r2
 400369c:	e0bffd0b 	ldhu	r2,-12(fp)
 40036a0:	1884b03a 	or	r2,r3,r2
 40036a4:	e0bffd0d 	sth	r2,-12(fp)
 40036a8:	e0bffd0b 	ldhu	r2,-12(fp)
 40036ac:	e037883a 	mov	sp,fp
 40036b0:	dfc00117 	ldw	ra,4(sp)
 40036b4:	df000017 	ldw	fp,0(sp)
 40036b8:	dec00204 	addi	sp,sp,8
 40036bc:	f800283a 	ret

040036c0 <alt_read_cfi_table>:
 40036c0:	defff204 	addi	sp,sp,-56
 40036c4:	dfc00d15 	stw	ra,52(sp)
 40036c8:	df000c15 	stw	fp,48(sp)
 40036cc:	dc000b15 	stw	r16,44(sp)
 40036d0:	df000b04 	addi	fp,sp,44
 40036d4:	e13fff15 	stw	r4,-4(fp)
 40036d8:	e03ffb15 	stw	zero,-20(fp)
 40036dc:	e03ffa15 	stw	zero,-24(fp)
 40036e0:	e03ff615 	stw	zero,-40(fp)
 40036e4:	e13fff17 	ldw	r4,-4(fp)
 40036e8:	40043ec0 	call	40043ec <alt_check_primary_table>
 40036ec:	e0bffb15 	stw	r2,-20(fp)
 40036f0:	e0bffb17 	ldw	r2,-20(fp)
 40036f4:	1004c03a 	cmpne	r2,r2,zero
 40036f8:	10014a1e 	bne	r2,zero,4003c24 <alt_read_cfi_table+0x564>
 40036fc:	e0bfff17 	ldw	r2,-4(fp)
 4003700:	10803417 	ldw	r2,208(r2)
 4003704:	e13fff17 	ldw	r4,-4(fp)
 4003708:	014004c4 	movi	r5,19
 400370c:	103ee83a 	callr	r2
 4003710:	10c03fcc 	andi	r3,r2,255
 4003714:	e0bfff17 	ldw	r2,-4(fp)
 4003718:	10c02d15 	stw	r3,180(r2)
 400371c:	e0bfff17 	ldw	r2,-4(fp)
 4003720:	10803417 	ldw	r2,208(r2)
 4003724:	e13fff17 	ldw	r4,-4(fp)
 4003728:	014007c4 	movi	r5,31
 400372c:	103ee83a 	callr	r2
 4003730:	10803fcc 	andi	r2,r2,255
 4003734:	e0bff815 	stw	r2,-32(fp)
 4003738:	e0bfff17 	ldw	r2,-4(fp)
 400373c:	10803417 	ldw	r2,208(r2)
 4003740:	e13fff17 	ldw	r4,-4(fp)
 4003744:	014008c4 	movi	r5,35
 4003748:	103ee83a 	callr	r2
 400374c:	10803fcc 	andi	r2,r2,255
 4003750:	e0bff715 	stw	r2,-36(fp)
 4003754:	e0bff817 	ldw	r2,-32(fp)
 4003758:	1005003a 	cmpeq	r2,r2,zero
 400375c:	1000031e 	bne	r2,zero,400376c <alt_read_cfi_table+0xac>
 4003760:	e0bff717 	ldw	r2,-36(fp)
 4003764:	1004c03a 	cmpne	r2,r2,zero
 4003768:	1000041e 	bne	r2,zero,400377c <alt_read_cfi_table+0xbc>
 400376c:	e0ffff17 	ldw	r3,-4(fp)
 4003770:	0080fa04 	movi	r2,1000
 4003774:	18803015 	stw	r2,192(r3)
 4003778:	00000706 	br	4003798 <alt_read_cfi_table+0xd8>
 400377c:	00c00044 	movi	r3,1
 4003780:	e0bff817 	ldw	r2,-32(fp)
 4003784:	1886983a 	sll	r3,r3,r2
 4003788:	e0bff717 	ldw	r2,-36(fp)
 400378c:	1886983a 	sll	r3,r3,r2
 4003790:	e0bfff17 	ldw	r2,-4(fp)
 4003794:	10c03015 	stw	r3,192(r2)
 4003798:	e0bfff17 	ldw	r2,-4(fp)
 400379c:	10803417 	ldw	r2,208(r2)
 40037a0:	e13fff17 	ldw	r4,-4(fp)
 40037a4:	01400844 	movi	r5,33
 40037a8:	103ee83a 	callr	r2
 40037ac:	10803fcc 	andi	r2,r2,255
 40037b0:	e0bff815 	stw	r2,-32(fp)
 40037b4:	e0bfff17 	ldw	r2,-4(fp)
 40037b8:	10803417 	ldw	r2,208(r2)
 40037bc:	e13fff17 	ldw	r4,-4(fp)
 40037c0:	01400944 	movi	r5,37
 40037c4:	103ee83a 	callr	r2
 40037c8:	10803fcc 	andi	r2,r2,255
 40037cc:	e0bff715 	stw	r2,-36(fp)
 40037d0:	e0bff817 	ldw	r2,-32(fp)
 40037d4:	1005003a 	cmpeq	r2,r2,zero
 40037d8:	1000031e 	bne	r2,zero,40037e8 <alt_read_cfi_table+0x128>
 40037dc:	e0bff717 	ldw	r2,-36(fp)
 40037e0:	1004c03a 	cmpne	r2,r2,zero
 40037e4:	1000051e 	bne	r2,zero,40037fc <alt_read_cfi_table+0x13c>
 40037e8:	e0ffff17 	ldw	r3,-4(fp)
 40037ec:	00804c74 	movhi	r2,305
 40037f0:	108b4004 	addi	r2,r2,11520
 40037f4:	18803115 	stw	r2,196(r3)
 40037f8:	00000806 	br	400381c <alt_read_cfi_table+0x15c>
 40037fc:	00c00044 	movi	r3,1
 4003800:	e0bff817 	ldw	r2,-32(fp)
 4003804:	1886983a 	sll	r3,r3,r2
 4003808:	e0bff717 	ldw	r2,-36(fp)
 400380c:	1884983a 	sll	r2,r3,r2
 4003810:	10c0fa24 	muli	r3,r2,1000
 4003814:	e0bfff17 	ldw	r2,-4(fp)
 4003818:	10c03115 	stw	r3,196(r2)
 400381c:	e0bfff17 	ldw	r2,-4(fp)
 4003820:	10803417 	ldw	r2,208(r2)
 4003824:	e13fff17 	ldw	r4,-4(fp)
 4003828:	014009c4 	movi	r5,39
 400382c:	103ee83a 	callr	r2
 4003830:	10c03fcc 	andi	r3,r2,255
 4003834:	00800044 	movi	r2,1
 4003838:	10c4983a 	sll	r2,r2,r3
 400383c:	e0bffc15 	stw	r2,-16(fp)
 4003840:	e0bfff17 	ldw	r2,-4(fp)
 4003844:	10803417 	ldw	r2,208(r2)
 4003848:	e13fff17 	ldw	r4,-4(fp)
 400384c:	01400b04 	movi	r5,44
 4003850:	103ee83a 	callr	r2
 4003854:	10c03fcc 	andi	r3,r2,255
 4003858:	e0bfff17 	ldw	r2,-4(fp)
 400385c:	10c00c15 	stw	r3,48(r2)
 4003860:	e0bfff17 	ldw	r2,-4(fp)
 4003864:	10800c17 	ldw	r2,48(r2)
 4003868:	10800250 	cmplti	r2,r2,9
 400386c:	1000031e 	bne	r2,zero,400387c <alt_read_cfi_table+0x1bc>
 4003870:	00bffd04 	movi	r2,-12
 4003874:	e0bffb15 	stw	r2,-20(fp)
 4003878:	00005e06 	br	40039f4 <alt_read_cfi_table+0x334>
 400387c:	e03ffe15 	stw	zero,-8(fp)
 4003880:	00005306 	br	40039d0 <alt_read_cfi_table+0x310>
 4003884:	e43ffe17 	ldw	r16,-8(fp)
 4003888:	e0bffe17 	ldw	r2,-8(fp)
 400388c:	1085883a 	add	r2,r2,r2
 4003890:	1085883a 	add	r2,r2,r2
 4003894:	11400b44 	addi	r5,r2,45
 4003898:	e13fff17 	ldw	r4,-4(fp)
 400389c:	40036440 	call	4003644 <alt_read_16bit_query_entry>
 40038a0:	113fffcc 	andi	r4,r2,65535
 40038a4:	e0ffff17 	ldw	r3,-4(fp)
 40038a8:	8004913a 	slli	r2,r16,4
 40038ac:	10c5883a 	add	r2,r2,r3
 40038b0:	10800f04 	addi	r2,r2,60
 40038b4:	11000015 	stw	r4,0(r2)
 40038b8:	e17ffe17 	ldw	r5,-8(fp)
 40038bc:	e0bffe17 	ldw	r2,-8(fp)
 40038c0:	e0ffff17 	ldw	r3,-4(fp)
 40038c4:	1004913a 	slli	r2,r2,4
 40038c8:	10c5883a 	add	r2,r2,r3
 40038cc:	10800f04 	addi	r2,r2,60
 40038d0:	10800017 	ldw	r2,0(r2)
 40038d4:	11000044 	addi	r4,r2,1
 40038d8:	e0ffff17 	ldw	r3,-4(fp)
 40038dc:	2804913a 	slli	r2,r5,4
 40038e0:	10c5883a 	add	r2,r2,r3
 40038e4:	10800f04 	addi	r2,r2,60
 40038e8:	11000015 	stw	r4,0(r2)
 40038ec:	e43ffe17 	ldw	r16,-8(fp)
 40038f0:	e0bffe17 	ldw	r2,-8(fp)
 40038f4:	1085883a 	add	r2,r2,r2
 40038f8:	1085883a 	add	r2,r2,r2
 40038fc:	11400bc4 	addi	r5,r2,47
 4003900:	e13fff17 	ldw	r4,-4(fp)
 4003904:	40036440 	call	4003644 <alt_read_16bit_query_entry>
 4003908:	113fffcc 	andi	r4,r2,65535
 400390c:	e0ffff17 	ldw	r3,-4(fp)
 4003910:	8004913a 	slli	r2,r16,4
 4003914:	10c5883a 	add	r2,r2,r3
 4003918:	10801004 	addi	r2,r2,64
 400391c:	11000015 	stw	r4,0(r2)
 4003920:	e17ffe17 	ldw	r5,-8(fp)
 4003924:	e0bffe17 	ldw	r2,-8(fp)
 4003928:	e0ffff17 	ldw	r3,-4(fp)
 400392c:	1004913a 	slli	r2,r2,4
 4003930:	10c5883a 	add	r2,r2,r3
 4003934:	10801004 	addi	r2,r2,64
 4003938:	10800017 	ldw	r2,0(r2)
 400393c:	1008923a 	slli	r4,r2,8
 4003940:	e0ffff17 	ldw	r3,-4(fp)
 4003944:	2804913a 	slli	r2,r5,4
 4003948:	10c5883a 	add	r2,r2,r3
 400394c:	10801004 	addi	r2,r2,64
 4003950:	11000015 	stw	r4,0(r2)
 4003954:	e17ffe17 	ldw	r5,-8(fp)
 4003958:	e0bffe17 	ldw	r2,-8(fp)
 400395c:	e0ffff17 	ldw	r3,-4(fp)
 4003960:	1004913a 	slli	r2,r2,4
 4003964:	10c5883a 	add	r2,r2,r3
 4003968:	10800f04 	addi	r2,r2,60
 400396c:	11000017 	ldw	r4,0(r2)
 4003970:	e0bffe17 	ldw	r2,-8(fp)
 4003974:	e0ffff17 	ldw	r3,-4(fp)
 4003978:	1004913a 	slli	r2,r2,4
 400397c:	10c5883a 	add	r2,r2,r3
 4003980:	10801004 	addi	r2,r2,64
 4003984:	10800017 	ldw	r2,0(r2)
 4003988:	2089383a 	mul	r4,r4,r2
 400398c:	e0ffff17 	ldw	r3,-4(fp)
 4003990:	2804913a 	slli	r2,r5,4
 4003994:	10c5883a 	add	r2,r2,r3
 4003998:	10800e04 	addi	r2,r2,56
 400399c:	11000015 	stw	r4,0(r2)
 40039a0:	e0bffe17 	ldw	r2,-8(fp)
 40039a4:	e0ffff17 	ldw	r3,-4(fp)
 40039a8:	1004913a 	slli	r2,r2,4
 40039ac:	10c5883a 	add	r2,r2,r3
 40039b0:	10800e04 	addi	r2,r2,56
 40039b4:	10c00017 	ldw	r3,0(r2)
 40039b8:	e0bffa17 	ldw	r2,-24(fp)
 40039bc:	10c5883a 	add	r2,r2,r3
 40039c0:	e0bffa15 	stw	r2,-24(fp)
 40039c4:	e0bffe17 	ldw	r2,-8(fp)
 40039c8:	10800044 	addi	r2,r2,1
 40039cc:	e0bffe15 	stw	r2,-8(fp)
 40039d0:	e0bfff17 	ldw	r2,-4(fp)
 40039d4:	10c00c17 	ldw	r3,48(r2)
 40039d8:	e0bffe17 	ldw	r2,-8(fp)
 40039dc:	10ffa916 	blt	r2,r3,4003884 <alt_read_cfi_table+0x1c4>
 40039e0:	e0fffa17 	ldw	r3,-24(fp)
 40039e4:	e0bffc17 	ldw	r2,-16(fp)
 40039e8:	18800226 	beq	r3,r2,40039f4 <alt_read_cfi_table+0x334>
 40039ec:	00bffb44 	movi	r2,-19
 40039f0:	e0bffb15 	stw	r2,-20(fp)
 40039f4:	e0bfff17 	ldw	r2,-4(fp)
 40039f8:	10c03417 	ldw	r3,208(r2)
 40039fc:	e0bfff17 	ldw	r2,-4(fp)
 4003a00:	10803217 	ldw	r2,200(r2)
 4003a04:	114003c4 	addi	r5,r2,15
 4003a08:	e13fff17 	ldw	r4,-4(fp)
 4003a0c:	183ee83a 	callr	r3
 4003a10:	e0bff505 	stb	r2,-44(fp)
 4003a14:	e0bfff17 	ldw	r2,-4(fp)
 4003a18:	10802d17 	ldw	r2,180(r2)
 4003a1c:	10800098 	cmpnei	r2,r2,2
 4003a20:	1000601e 	bne	r2,zero,4003ba4 <alt_read_cfi_table+0x4e4>
 4003a24:	e0bff503 	ldbu	r2,-44(fp)
 4003a28:	108000d8 	cmpnei	r2,r2,3
 4003a2c:	10005d1e 	bne	r2,zero,4003ba4 <alt_read_cfi_table+0x4e4>
 4003a30:	e0bfff17 	ldw	r2,-4(fp)
 4003a34:	10800c17 	ldw	r2,48(r2)
 4003a38:	10bfffc4 	addi	r2,r2,-1
 4003a3c:	e0bffe15 	stw	r2,-8(fp)
 4003a40:	e03ffd15 	stw	zero,-12(fp)
 4003a44:	00005406 	br	4003b98 <alt_read_cfi_table+0x4d8>
 4003a48:	e0bffe17 	ldw	r2,-8(fp)
 4003a4c:	e0ffff17 	ldw	r3,-4(fp)
 4003a50:	1004913a 	slli	r2,r2,4
 4003a54:	10c5883a 	add	r2,r2,r3
 4003a58:	10800e04 	addi	r2,r2,56
 4003a5c:	10800017 	ldw	r2,0(r2)
 4003a60:	e0bff915 	stw	r2,-28(fp)
 4003a64:	e17ffe17 	ldw	r5,-8(fp)
 4003a68:	e0bffd17 	ldw	r2,-12(fp)
 4003a6c:	e0ffff17 	ldw	r3,-4(fp)
 4003a70:	1004913a 	slli	r2,r2,4
 4003a74:	10c5883a 	add	r2,r2,r3
 4003a78:	10800e04 	addi	r2,r2,56
 4003a7c:	11000017 	ldw	r4,0(r2)
 4003a80:	e0ffff17 	ldw	r3,-4(fp)
 4003a84:	2804913a 	slli	r2,r5,4
 4003a88:	10c5883a 	add	r2,r2,r3
 4003a8c:	10800e04 	addi	r2,r2,56
 4003a90:	11000015 	stw	r4,0(r2)
 4003a94:	e0bffd17 	ldw	r2,-12(fp)
 4003a98:	e0ffff17 	ldw	r3,-4(fp)
 4003a9c:	1004913a 	slli	r2,r2,4
 4003aa0:	10c5883a 	add	r2,r2,r3
 4003aa4:	10c00e04 	addi	r3,r2,56
 4003aa8:	e0bff917 	ldw	r2,-28(fp)
 4003aac:	18800015 	stw	r2,0(r3)
 4003ab0:	e0bffe17 	ldw	r2,-8(fp)
 4003ab4:	e0ffff17 	ldw	r3,-4(fp)
 4003ab8:	1004913a 	slli	r2,r2,4
 4003abc:	10c5883a 	add	r2,r2,r3
 4003ac0:	10801004 	addi	r2,r2,64
 4003ac4:	10800017 	ldw	r2,0(r2)
 4003ac8:	e0bff915 	stw	r2,-28(fp)
 4003acc:	e17ffe17 	ldw	r5,-8(fp)
 4003ad0:	e0bffd17 	ldw	r2,-12(fp)
 4003ad4:	e0ffff17 	ldw	r3,-4(fp)
 4003ad8:	1004913a 	slli	r2,r2,4
 4003adc:	10c5883a 	add	r2,r2,r3
 4003ae0:	10801004 	addi	r2,r2,64
 4003ae4:	11000017 	ldw	r4,0(r2)
 4003ae8:	e0ffff17 	ldw	r3,-4(fp)
 4003aec:	2804913a 	slli	r2,r5,4
 4003af0:	10c5883a 	add	r2,r2,r3
 4003af4:	10801004 	addi	r2,r2,64
 4003af8:	11000015 	stw	r4,0(r2)
 4003afc:	e0bffd17 	ldw	r2,-12(fp)
 4003b00:	e0ffff17 	ldw	r3,-4(fp)
 4003b04:	1004913a 	slli	r2,r2,4
 4003b08:	10c5883a 	add	r2,r2,r3
 4003b0c:	10c01004 	addi	r3,r2,64
 4003b10:	e0bff917 	ldw	r2,-28(fp)
 4003b14:	18800015 	stw	r2,0(r3)
 4003b18:	e0bffe17 	ldw	r2,-8(fp)
 4003b1c:	e0ffff17 	ldw	r3,-4(fp)
 4003b20:	1004913a 	slli	r2,r2,4
 4003b24:	10c5883a 	add	r2,r2,r3
 4003b28:	10800f04 	addi	r2,r2,60
 4003b2c:	10800017 	ldw	r2,0(r2)
 4003b30:	e0bff915 	stw	r2,-28(fp)
 4003b34:	e17ffe17 	ldw	r5,-8(fp)
 4003b38:	e0bffd17 	ldw	r2,-12(fp)
 4003b3c:	e0ffff17 	ldw	r3,-4(fp)
 4003b40:	1004913a 	slli	r2,r2,4
 4003b44:	10c5883a 	add	r2,r2,r3
 4003b48:	10800f04 	addi	r2,r2,60
 4003b4c:	11000017 	ldw	r4,0(r2)
 4003b50:	e0ffff17 	ldw	r3,-4(fp)
 4003b54:	2804913a 	slli	r2,r5,4
 4003b58:	10c5883a 	add	r2,r2,r3
 4003b5c:	10800f04 	addi	r2,r2,60
 4003b60:	11000015 	stw	r4,0(r2)
 4003b64:	e0bffd17 	ldw	r2,-12(fp)
 4003b68:	e0ffff17 	ldw	r3,-4(fp)
 4003b6c:	1004913a 	slli	r2,r2,4
 4003b70:	10c5883a 	add	r2,r2,r3
 4003b74:	10c00f04 	addi	r3,r2,60
 4003b78:	e0bff917 	ldw	r2,-28(fp)
 4003b7c:	18800015 	stw	r2,0(r3)
 4003b80:	e0bffe17 	ldw	r2,-8(fp)
 4003b84:	10bfffc4 	addi	r2,r2,-1
 4003b88:	e0bffe15 	stw	r2,-8(fp)
 4003b8c:	e0bffd17 	ldw	r2,-12(fp)
 4003b90:	10800044 	addi	r2,r2,1
 4003b94:	e0bffd15 	stw	r2,-12(fp)
 4003b98:	e0fffd17 	ldw	r3,-12(fp)
 4003b9c:	e0bffe17 	ldw	r2,-8(fp)
 4003ba0:	10ffa90e 	bge	r2,r3,4003a48 <alt_read_cfi_table+0x388>
 4003ba4:	e03ffe15 	stw	zero,-8(fp)
 4003ba8:	00001306 	br	4003bf8 <alt_read_cfi_table+0x538>
 4003bac:	e0bffe17 	ldw	r2,-8(fp)
 4003bb0:	e0ffff17 	ldw	r3,-4(fp)
 4003bb4:	1004913a 	slli	r2,r2,4
 4003bb8:	10c5883a 	add	r2,r2,r3
 4003bbc:	10c00d04 	addi	r3,r2,52
 4003bc0:	e0bff617 	ldw	r2,-40(fp)
 4003bc4:	18800015 	stw	r2,0(r3)
 4003bc8:	e0bffe17 	ldw	r2,-8(fp)
 4003bcc:	e0ffff17 	ldw	r3,-4(fp)
 4003bd0:	1004913a 	slli	r2,r2,4
 4003bd4:	10c5883a 	add	r2,r2,r3
 4003bd8:	10800e04 	addi	r2,r2,56
 4003bdc:	10c00017 	ldw	r3,0(r2)
 4003be0:	e0bff617 	ldw	r2,-40(fp)
 4003be4:	10c5883a 	add	r2,r2,r3
 4003be8:	e0bff615 	stw	r2,-40(fp)
 4003bec:	e0bffe17 	ldw	r2,-8(fp)
 4003bf0:	10800044 	addi	r2,r2,1
 4003bf4:	e0bffe15 	stw	r2,-8(fp)
 4003bf8:	e0bfff17 	ldw	r2,-4(fp)
 4003bfc:	10c00c17 	ldw	r3,48(r2)
 4003c00:	e0bffe17 	ldw	r2,-8(fp)
 4003c04:	10ffe916 	blt	r2,r3,4003bac <alt_read_cfi_table+0x4ec>
 4003c08:	e0bfff17 	ldw	r2,-4(fp)
 4003c0c:	10c03317 	ldw	r3,204(r2)
 4003c10:	e0bfff17 	ldw	r2,-4(fp)
 4003c14:	11000a17 	ldw	r4,40(r2)
 4003c18:	01401544 	movi	r5,85
 4003c1c:	01803fc4 	movi	r6,255
 4003c20:	183ee83a 	callr	r3
 4003c24:	e0bffb17 	ldw	r2,-20(fp)
 4003c28:	e037883a 	mov	sp,fp
 4003c2c:	dfc00217 	ldw	ra,8(sp)
 4003c30:	df000117 	ldw	fp,4(sp)
 4003c34:	dc000017 	ldw	r16,0(sp)
 4003c38:	dec00304 	addi	sp,sp,12
 4003c3c:	f800283a 	ret

04003c40 <alt_read_cfi_width>:
 4003c40:	defff704 	addi	sp,sp,-36
 4003c44:	dfc00815 	stw	ra,32(sp)
 4003c48:	df000715 	stw	fp,28(sp)
 4003c4c:	df000704 	addi	fp,sp,28
 4003c50:	e13fff15 	stw	r4,-4(fp)
 4003c54:	e03ff915 	stw	zero,-28(fp)
 4003c58:	e0bfff17 	ldw	r2,-4(fp)
 4003c5c:	11000a17 	ldw	r4,40(r2)
 4003c60:	01401544 	movi	r5,85
 4003c64:	01802604 	movi	r6,152
 4003c68:	400314c0 	call	400314c <alt_write_flash_command_8bit_device_8bit_mode>
 4003c6c:	e03ffb15 	stw	zero,-20(fp)
 4003c70:	00000f06 	br	4003cb0 <alt_read_cfi_width+0x70>
 4003c74:	e13ffb17 	ldw	r4,-20(fp)
 4003c78:	e0bfff17 	ldw	r2,-4(fp)
 4003c7c:	10800a17 	ldw	r2,40(r2)
 4003c80:	1007883a 	mov	r3,r2
 4003c84:	e0bffb17 	ldw	r2,-20(fp)
 4003c88:	1885883a 	add	r2,r3,r2
 4003c8c:	10800404 	addi	r2,r2,16
 4003c90:	10800023 	ldbuio	r2,0(r2)
 4003c94:	1007883a 	mov	r3,r2
 4003c98:	e0bffc04 	addi	r2,fp,-16
 4003c9c:	1105883a 	add	r2,r2,r4
 4003ca0:	10c00005 	stb	r3,0(r2)
 4003ca4:	e0bffb17 	ldw	r2,-20(fp)
 4003ca8:	10800044 	addi	r2,r2,1
 4003cac:	e0bffb15 	stw	r2,-20(fp)
 4003cb0:	e0bffb17 	ldw	r2,-20(fp)
 4003cb4:	108000d0 	cmplti	r2,r2,3
 4003cb8:	103fee1e 	bne	r2,zero,4003c74 <alt_read_cfi_width+0x34>
 4003cbc:	e0bffc03 	ldbu	r2,-16(fp)
 4003cc0:	10803fcc 	andi	r2,r2,255
 4003cc4:	10801458 	cmpnei	r2,r2,81
 4003cc8:	10001d1e 	bne	r2,zero,4003d40 <alt_read_cfi_width+0x100>
 4003ccc:	e0bffc43 	ldbu	r2,-15(fp)
 4003cd0:	10803fcc 	andi	r2,r2,255
 4003cd4:	10801498 	cmpnei	r2,r2,82
 4003cd8:	1000191e 	bne	r2,zero,4003d40 <alt_read_cfi_width+0x100>
 4003cdc:	e0bffc83 	ldbu	r2,-14(fp)
 4003ce0:	10803fcc 	andi	r2,r2,255
 4003ce4:	10801658 	cmpnei	r2,r2,89
 4003ce8:	1000151e 	bne	r2,zero,4003d40 <alt_read_cfi_width+0x100>
 4003cec:	e0ffff17 	ldw	r3,-4(fp)
 4003cf0:	00800044 	movi	r2,1
 4003cf4:	18802e15 	stw	r2,184(r3)
 4003cf8:	e0ffff17 	ldw	r3,-4(fp)
 4003cfc:	00800044 	movi	r2,1
 4003d00:	18802f15 	stw	r2,188(r3)
 4003d04:	e0bfff17 	ldw	r2,-4(fp)
 4003d08:	10800a17 	ldw	r2,40(r2)
 4003d0c:	10800a04 	addi	r2,r2,40
 4003d10:	1080002b 	ldhuio	r2,0(r2)
 4003d14:	e0bffa0d 	sth	r2,-24(fp)
 4003d18:	e0bffa0b 	ldhu	r2,-24(fp)
 4003d1c:	10800044 	addi	r2,r2,1
 4003d20:	e0bffa0d 	sth	r2,-24(fp)
 4003d24:	e0bffa0b 	ldhu	r2,-24(fp)
 4003d28:	1080004c 	andi	r2,r2,1
 4003d2c:	1004c03a 	cmpne	r2,r2,zero
 4003d30:	1001a81e 	bne	r2,zero,40043d4 <alt_read_cfi_width+0x794>
 4003d34:	00bffb44 	movi	r2,-19
 4003d38:	e0bff915 	stw	r2,-28(fp)
 4003d3c:	0001a506 	br	40043d4 <alt_read_cfi_width+0x794>
 4003d40:	e0bfff17 	ldw	r2,-4(fp)
 4003d44:	11000a17 	ldw	r4,40(r2)
 4003d48:	01401544 	movi	r5,85
 4003d4c:	01802604 	movi	r6,152
 4003d50:	40031880 	call	4003188 <alt_write_flash_command_16bit_device_8bit_mode>
 4003d54:	e03ffb15 	stw	zero,-20(fp)
 4003d58:	00000f06 	br	4003d98 <alt_read_cfi_width+0x158>
 4003d5c:	e13ffb17 	ldw	r4,-20(fp)
 4003d60:	e0bfff17 	ldw	r2,-4(fp)
 4003d64:	10800a17 	ldw	r2,40(r2)
 4003d68:	1007883a 	mov	r3,r2
 4003d6c:	e0bffb17 	ldw	r2,-20(fp)
 4003d70:	1885883a 	add	r2,r3,r2
 4003d74:	10800804 	addi	r2,r2,32
 4003d78:	10800023 	ldbuio	r2,0(r2)
 4003d7c:	1007883a 	mov	r3,r2
 4003d80:	e0bffc04 	addi	r2,fp,-16
 4003d84:	1105883a 	add	r2,r2,r4
 4003d88:	10c00005 	stb	r3,0(r2)
 4003d8c:	e0bffb17 	ldw	r2,-20(fp)
 4003d90:	10800044 	addi	r2,r2,1
 4003d94:	e0bffb15 	stw	r2,-20(fp)
 4003d98:	e0bffb17 	ldw	r2,-20(fp)
 4003d9c:	10800190 	cmplti	r2,r2,6
 4003da0:	103fee1e 	bne	r2,zero,4003d5c <alt_read_cfi_width+0x11c>
 4003da4:	e0bffc03 	ldbu	r2,-16(fp)
 4003da8:	10803fcc 	andi	r2,r2,255
 4003dac:	10801458 	cmpnei	r2,r2,81
 4003db0:	1000291e 	bne	r2,zero,4003e58 <alt_read_cfi_width+0x218>
 4003db4:	e0bffc43 	ldbu	r2,-15(fp)
 4003db8:	10803fcc 	andi	r2,r2,255
 4003dbc:	10801458 	cmpnei	r2,r2,81
 4003dc0:	1000251e 	bne	r2,zero,4003e58 <alt_read_cfi_width+0x218>
 4003dc4:	e0bffc83 	ldbu	r2,-14(fp)
 4003dc8:	10803fcc 	andi	r2,r2,255
 4003dcc:	10801498 	cmpnei	r2,r2,82
 4003dd0:	1000211e 	bne	r2,zero,4003e58 <alt_read_cfi_width+0x218>
 4003dd4:	e0bffcc3 	ldbu	r2,-13(fp)
 4003dd8:	10803fcc 	andi	r2,r2,255
 4003ddc:	10801498 	cmpnei	r2,r2,82
 4003de0:	10001d1e 	bne	r2,zero,4003e58 <alt_read_cfi_width+0x218>
 4003de4:	e0bffd03 	ldbu	r2,-12(fp)
 4003de8:	10803fcc 	andi	r2,r2,255
 4003dec:	10801658 	cmpnei	r2,r2,89
 4003df0:	1000191e 	bne	r2,zero,4003e58 <alt_read_cfi_width+0x218>
 4003df4:	e0bffd43 	ldbu	r2,-11(fp)
 4003df8:	10803fcc 	andi	r2,r2,255
 4003dfc:	10801658 	cmpnei	r2,r2,89
 4003e00:	1000151e 	bne	r2,zero,4003e58 <alt_read_cfi_width+0x218>
 4003e04:	e0ffff17 	ldw	r3,-4(fp)
 4003e08:	00800044 	movi	r2,1
 4003e0c:	18802e15 	stw	r2,184(r3)
 4003e10:	e0ffff17 	ldw	r3,-4(fp)
 4003e14:	00800084 	movi	r2,2
 4003e18:	18802f15 	stw	r2,188(r3)
 4003e1c:	e0bfff17 	ldw	r2,-4(fp)
 4003e20:	10800a17 	ldw	r2,40(r2)
 4003e24:	10801404 	addi	r2,r2,80
 4003e28:	1080002b 	ldhuio	r2,0(r2)
 4003e2c:	e0bffa0d 	sth	r2,-24(fp)
 4003e30:	e0bffa0b 	ldhu	r2,-24(fp)
 4003e34:	10800044 	addi	r2,r2,1
 4003e38:	e0bffa0d 	sth	r2,-24(fp)
 4003e3c:	e0bffa0b 	ldhu	r2,-24(fp)
 4003e40:	1080004c 	andi	r2,r2,1
 4003e44:	1004c03a 	cmpne	r2,r2,zero
 4003e48:	1001621e 	bne	r2,zero,40043d4 <alt_read_cfi_width+0x794>
 4003e4c:	00bffb44 	movi	r2,-19
 4003e50:	e0bff915 	stw	r2,-28(fp)
 4003e54:	00015f06 	br	40043d4 <alt_read_cfi_width+0x794>
 4003e58:	e0bfff17 	ldw	r2,-4(fp)
 4003e5c:	11000a17 	ldw	r4,40(r2)
 4003e60:	01401544 	movi	r5,85
 4003e64:	01802604 	movi	r6,152
 4003e68:	400324c0 	call	400324c <alt_write_flash_command_16bit_device_16bit_mode>
 4003e6c:	e03ffb15 	stw	zero,-20(fp)
 4003e70:	00000f06 	br	4003eb0 <alt_read_cfi_width+0x270>
 4003e74:	e13ffb17 	ldw	r4,-20(fp)
 4003e78:	e0bfff17 	ldw	r2,-4(fp)
 4003e7c:	10800a17 	ldw	r2,40(r2)
 4003e80:	1007883a 	mov	r3,r2
 4003e84:	e0bffb17 	ldw	r2,-20(fp)
 4003e88:	1885883a 	add	r2,r3,r2
 4003e8c:	10800804 	addi	r2,r2,32
 4003e90:	10800023 	ldbuio	r2,0(r2)
 4003e94:	1007883a 	mov	r3,r2
 4003e98:	e0bffc04 	addi	r2,fp,-16
 4003e9c:	1105883a 	add	r2,r2,r4
 4003ea0:	10c00005 	stb	r3,0(r2)
 4003ea4:	e0bffb17 	ldw	r2,-20(fp)
 4003ea8:	10800044 	addi	r2,r2,1
 4003eac:	e0bffb15 	stw	r2,-20(fp)
 4003eb0:	e0bffb17 	ldw	r2,-20(fp)
 4003eb4:	10800190 	cmplti	r2,r2,6
 4003eb8:	103fee1e 	bne	r2,zero,4003e74 <alt_read_cfi_width+0x234>
 4003ebc:	e0bffc03 	ldbu	r2,-16(fp)
 4003ec0:	10803fcc 	andi	r2,r2,255
 4003ec4:	10801458 	cmpnei	r2,r2,81
 4003ec8:	1000291e 	bne	r2,zero,4003f70 <alt_read_cfi_width+0x330>
 4003ecc:	e0bffc43 	ldbu	r2,-15(fp)
 4003ed0:	10803fcc 	andi	r2,r2,255
 4003ed4:	1004c03a 	cmpne	r2,r2,zero
 4003ed8:	1000251e 	bne	r2,zero,4003f70 <alt_read_cfi_width+0x330>
 4003edc:	e0bffc83 	ldbu	r2,-14(fp)
 4003ee0:	10803fcc 	andi	r2,r2,255
 4003ee4:	10801498 	cmpnei	r2,r2,82
 4003ee8:	1000211e 	bne	r2,zero,4003f70 <alt_read_cfi_width+0x330>
 4003eec:	e0bffcc3 	ldbu	r2,-13(fp)
 4003ef0:	10803fcc 	andi	r2,r2,255
 4003ef4:	1004c03a 	cmpne	r2,r2,zero
 4003ef8:	10001d1e 	bne	r2,zero,4003f70 <alt_read_cfi_width+0x330>
 4003efc:	e0bffd03 	ldbu	r2,-12(fp)
 4003f00:	10803fcc 	andi	r2,r2,255
 4003f04:	10801658 	cmpnei	r2,r2,89
 4003f08:	1000191e 	bne	r2,zero,4003f70 <alt_read_cfi_width+0x330>
 4003f0c:	e0bffd43 	ldbu	r2,-11(fp)
 4003f10:	10803fcc 	andi	r2,r2,255
 4003f14:	1004c03a 	cmpne	r2,r2,zero
 4003f18:	1000151e 	bne	r2,zero,4003f70 <alt_read_cfi_width+0x330>
 4003f1c:	e0ffff17 	ldw	r3,-4(fp)
 4003f20:	00800084 	movi	r2,2
 4003f24:	18802e15 	stw	r2,184(r3)
 4003f28:	e0ffff17 	ldw	r3,-4(fp)
 4003f2c:	00800084 	movi	r2,2
 4003f30:	18802f15 	stw	r2,188(r3)
 4003f34:	e0bfff17 	ldw	r2,-4(fp)
 4003f38:	10800a17 	ldw	r2,40(r2)
 4003f3c:	10801404 	addi	r2,r2,80
 4003f40:	1080002b 	ldhuio	r2,0(r2)
 4003f44:	e0bffa0d 	sth	r2,-24(fp)
 4003f48:	e0bffa0b 	ldhu	r2,-24(fp)
 4003f4c:	10800044 	addi	r2,r2,1
 4003f50:	e0bffa0d 	sth	r2,-24(fp)
 4003f54:	e0bffa0b 	ldhu	r2,-24(fp)
 4003f58:	1080008c 	andi	r2,r2,2
 4003f5c:	1004c03a 	cmpne	r2,r2,zero
 4003f60:	10011c1e 	bne	r2,zero,40043d4 <alt_read_cfi_width+0x794>
 4003f64:	00bffb44 	movi	r2,-19
 4003f68:	e0bff915 	stw	r2,-28(fp)
 4003f6c:	00011906 	br	40043d4 <alt_read_cfi_width+0x794>
 4003f70:	e0bfff17 	ldw	r2,-4(fp)
 4003f74:	11000a17 	ldw	r4,40(r2)
 4003f78:	01401544 	movi	r5,85
 4003f7c:	01802604 	movi	r6,152
 4003f80:	40032d80 	call	40032d8 <alt_write_flash_command_32bit_device_32bit_mode>
 4003f84:	e03ffb15 	stw	zero,-20(fp)
 4003f88:	00000f06 	br	4003fc8 <alt_read_cfi_width+0x388>
 4003f8c:	e13ffb17 	ldw	r4,-20(fp)
 4003f90:	e0bfff17 	ldw	r2,-4(fp)
 4003f94:	10800a17 	ldw	r2,40(r2)
 4003f98:	1007883a 	mov	r3,r2
 4003f9c:	e0bffb17 	ldw	r2,-20(fp)
 4003fa0:	1885883a 	add	r2,r3,r2
 4003fa4:	10801004 	addi	r2,r2,64
 4003fa8:	10800023 	ldbuio	r2,0(r2)
 4003fac:	1007883a 	mov	r3,r2
 4003fb0:	e0bffc04 	addi	r2,fp,-16
 4003fb4:	1105883a 	add	r2,r2,r4
 4003fb8:	10c00005 	stb	r3,0(r2)
 4003fbc:	e0bffb17 	ldw	r2,-20(fp)
 4003fc0:	10800044 	addi	r2,r2,1
 4003fc4:	e0bffb15 	stw	r2,-20(fp)
 4003fc8:	e0bffb17 	ldw	r2,-20(fp)
 4003fcc:	10800310 	cmplti	r2,r2,12
 4003fd0:	103fee1e 	bne	r2,zero,4003f8c <alt_read_cfi_width+0x34c>
 4003fd4:	e0bffc03 	ldbu	r2,-16(fp)
 4003fd8:	10803fcc 	andi	r2,r2,255
 4003fdc:	10801458 	cmpnei	r2,r2,81
 4003fe0:	1000411e 	bne	r2,zero,40040e8 <alt_read_cfi_width+0x4a8>
 4003fe4:	e0bffc43 	ldbu	r2,-15(fp)
 4003fe8:	10803fcc 	andi	r2,r2,255
 4003fec:	1004c03a 	cmpne	r2,r2,zero
 4003ff0:	10003d1e 	bne	r2,zero,40040e8 <alt_read_cfi_width+0x4a8>
 4003ff4:	e0bffc83 	ldbu	r2,-14(fp)
 4003ff8:	10803fcc 	andi	r2,r2,255
 4003ffc:	1004c03a 	cmpne	r2,r2,zero
 4004000:	1000391e 	bne	r2,zero,40040e8 <alt_read_cfi_width+0x4a8>
 4004004:	e0bffcc3 	ldbu	r2,-13(fp)
 4004008:	10803fcc 	andi	r2,r2,255
 400400c:	1004c03a 	cmpne	r2,r2,zero
 4004010:	1000351e 	bne	r2,zero,40040e8 <alt_read_cfi_width+0x4a8>
 4004014:	e0bffd03 	ldbu	r2,-12(fp)
 4004018:	10803fcc 	andi	r2,r2,255
 400401c:	10801498 	cmpnei	r2,r2,82
 4004020:	1000311e 	bne	r2,zero,40040e8 <alt_read_cfi_width+0x4a8>
 4004024:	e0bffd43 	ldbu	r2,-11(fp)
 4004028:	10803fcc 	andi	r2,r2,255
 400402c:	1004c03a 	cmpne	r2,r2,zero
 4004030:	10002d1e 	bne	r2,zero,40040e8 <alt_read_cfi_width+0x4a8>
 4004034:	e0bffd83 	ldbu	r2,-10(fp)
 4004038:	10803fcc 	andi	r2,r2,255
 400403c:	1004c03a 	cmpne	r2,r2,zero
 4004040:	1000291e 	bne	r2,zero,40040e8 <alt_read_cfi_width+0x4a8>
 4004044:	e0bffdc3 	ldbu	r2,-9(fp)
 4004048:	10803fcc 	andi	r2,r2,255
 400404c:	1004c03a 	cmpne	r2,r2,zero
 4004050:	1000251e 	bne	r2,zero,40040e8 <alt_read_cfi_width+0x4a8>
 4004054:	e0bffe03 	ldbu	r2,-8(fp)
 4004058:	10803fcc 	andi	r2,r2,255
 400405c:	10801658 	cmpnei	r2,r2,89
 4004060:	1000211e 	bne	r2,zero,40040e8 <alt_read_cfi_width+0x4a8>
 4004064:	e0bffe43 	ldbu	r2,-7(fp)
 4004068:	10803fcc 	andi	r2,r2,255
 400406c:	1004c03a 	cmpne	r2,r2,zero
 4004070:	10001d1e 	bne	r2,zero,40040e8 <alt_read_cfi_width+0x4a8>
 4004074:	e0bffe83 	ldbu	r2,-6(fp)
 4004078:	10803fcc 	andi	r2,r2,255
 400407c:	1004c03a 	cmpne	r2,r2,zero
 4004080:	1000191e 	bne	r2,zero,40040e8 <alt_read_cfi_width+0x4a8>
 4004084:	e0bffec3 	ldbu	r2,-5(fp)
 4004088:	10803fcc 	andi	r2,r2,255
 400408c:	1004c03a 	cmpne	r2,r2,zero
 4004090:	1000151e 	bne	r2,zero,40040e8 <alt_read_cfi_width+0x4a8>
 4004094:	e0ffff17 	ldw	r3,-4(fp)
 4004098:	00800104 	movi	r2,4
 400409c:	18802e15 	stw	r2,184(r3)
 40040a0:	e0ffff17 	ldw	r3,-4(fp)
 40040a4:	00800104 	movi	r2,4
 40040a8:	18802f15 	stw	r2,188(r3)
 40040ac:	e0bfff17 	ldw	r2,-4(fp)
 40040b0:	10800a17 	ldw	r2,40(r2)
 40040b4:	10802804 	addi	r2,r2,160
 40040b8:	10800037 	ldwio	r2,0(r2)
 40040bc:	e0bffa0d 	sth	r2,-24(fp)
 40040c0:	e0bffa0b 	ldhu	r2,-24(fp)
 40040c4:	10800044 	addi	r2,r2,1
 40040c8:	e0bffa0d 	sth	r2,-24(fp)
 40040cc:	e0bffa0b 	ldhu	r2,-24(fp)
 40040d0:	1080010c 	andi	r2,r2,4
 40040d4:	1004c03a 	cmpne	r2,r2,zero
 40040d8:	1000be1e 	bne	r2,zero,40043d4 <alt_read_cfi_width+0x794>
 40040dc:	00bffb44 	movi	r2,-19
 40040e0:	e0bff915 	stw	r2,-28(fp)
 40040e4:	0000bb06 	br	40043d4 <alt_read_cfi_width+0x794>
 40040e8:	e0bfff17 	ldw	r2,-4(fp)
 40040ec:	11000a17 	ldw	r4,40(r2)
 40040f0:	01401544 	movi	r5,85
 40040f4:	01802604 	movi	r6,152
 40040f8:	40032900 	call	4003290 <alt_write_flash_command_32bit_device_16bit_mode>
 40040fc:	e03ffb15 	stw	zero,-20(fp)
 4004100:	00000f06 	br	4004140 <alt_read_cfi_width+0x500>
 4004104:	e13ffb17 	ldw	r4,-20(fp)
 4004108:	e0bfff17 	ldw	r2,-4(fp)
 400410c:	10800a17 	ldw	r2,40(r2)
 4004110:	1007883a 	mov	r3,r2
 4004114:	e0bffb17 	ldw	r2,-20(fp)
 4004118:	1885883a 	add	r2,r3,r2
 400411c:	10801004 	addi	r2,r2,64
 4004120:	10800023 	ldbuio	r2,0(r2)
 4004124:	1007883a 	mov	r3,r2
 4004128:	e0bffc04 	addi	r2,fp,-16
 400412c:	1105883a 	add	r2,r2,r4
 4004130:	10c00005 	stb	r3,0(r2)
 4004134:	e0bffb17 	ldw	r2,-20(fp)
 4004138:	10800044 	addi	r2,r2,1
 400413c:	e0bffb15 	stw	r2,-20(fp)
 4004140:	e0bffb17 	ldw	r2,-20(fp)
 4004144:	10800310 	cmplti	r2,r2,12
 4004148:	103fee1e 	bne	r2,zero,4004104 <alt_read_cfi_width+0x4c4>
 400414c:	e0bffc03 	ldbu	r2,-16(fp)
 4004150:	10803fcc 	andi	r2,r2,255
 4004154:	10801458 	cmpnei	r2,r2,81
 4004158:	1000411e 	bne	r2,zero,4004260 <alt_read_cfi_width+0x620>
 400415c:	e0bffc43 	ldbu	r2,-15(fp)
 4004160:	10803fcc 	andi	r2,r2,255
 4004164:	1004c03a 	cmpne	r2,r2,zero
 4004168:	10003d1e 	bne	r2,zero,4004260 <alt_read_cfi_width+0x620>
 400416c:	e0bffc83 	ldbu	r2,-14(fp)
 4004170:	10803fcc 	andi	r2,r2,255
 4004174:	10801458 	cmpnei	r2,r2,81
 4004178:	1000391e 	bne	r2,zero,4004260 <alt_read_cfi_width+0x620>
 400417c:	e0bffcc3 	ldbu	r2,-13(fp)
 4004180:	10803fcc 	andi	r2,r2,255
 4004184:	1004c03a 	cmpne	r2,r2,zero
 4004188:	1000351e 	bne	r2,zero,4004260 <alt_read_cfi_width+0x620>
 400418c:	e0bffd03 	ldbu	r2,-12(fp)
 4004190:	10803fcc 	andi	r2,r2,255
 4004194:	10801498 	cmpnei	r2,r2,82
 4004198:	1000311e 	bne	r2,zero,4004260 <alt_read_cfi_width+0x620>
 400419c:	e0bffd43 	ldbu	r2,-11(fp)
 40041a0:	10803fcc 	andi	r2,r2,255
 40041a4:	1004c03a 	cmpne	r2,r2,zero
 40041a8:	10002d1e 	bne	r2,zero,4004260 <alt_read_cfi_width+0x620>
 40041ac:	e0bffd83 	ldbu	r2,-10(fp)
 40041b0:	10803fcc 	andi	r2,r2,255
 40041b4:	10801498 	cmpnei	r2,r2,82
 40041b8:	1000291e 	bne	r2,zero,4004260 <alt_read_cfi_width+0x620>
 40041bc:	e0bffdc3 	ldbu	r2,-9(fp)
 40041c0:	10803fcc 	andi	r2,r2,255
 40041c4:	1004c03a 	cmpne	r2,r2,zero
 40041c8:	1000251e 	bne	r2,zero,4004260 <alt_read_cfi_width+0x620>
 40041cc:	e0bffe03 	ldbu	r2,-8(fp)
 40041d0:	10803fcc 	andi	r2,r2,255
 40041d4:	10801658 	cmpnei	r2,r2,89
 40041d8:	1000211e 	bne	r2,zero,4004260 <alt_read_cfi_width+0x620>
 40041dc:	e0bffe43 	ldbu	r2,-7(fp)
 40041e0:	10803fcc 	andi	r2,r2,255
 40041e4:	1004c03a 	cmpne	r2,r2,zero
 40041e8:	10001d1e 	bne	r2,zero,4004260 <alt_read_cfi_width+0x620>
 40041ec:	e0bffe83 	ldbu	r2,-6(fp)
 40041f0:	10803fcc 	andi	r2,r2,255
 40041f4:	10801658 	cmpnei	r2,r2,89
 40041f8:	1000191e 	bne	r2,zero,4004260 <alt_read_cfi_width+0x620>
 40041fc:	e0bffec3 	ldbu	r2,-5(fp)
 4004200:	10803fcc 	andi	r2,r2,255
 4004204:	1004c03a 	cmpne	r2,r2,zero
 4004208:	1000151e 	bne	r2,zero,4004260 <alt_read_cfi_width+0x620>
 400420c:	e0ffff17 	ldw	r3,-4(fp)
 4004210:	00800084 	movi	r2,2
 4004214:	18802e15 	stw	r2,184(r3)
 4004218:	e0ffff17 	ldw	r3,-4(fp)
 400421c:	00800104 	movi	r2,4
 4004220:	18802f15 	stw	r2,188(r3)
 4004224:	e0bfff17 	ldw	r2,-4(fp)
 4004228:	10800a17 	ldw	r2,40(r2)
 400422c:	10802804 	addi	r2,r2,160
 4004230:	10800037 	ldwio	r2,0(r2)
 4004234:	e0bffa0d 	sth	r2,-24(fp)
 4004238:	e0bffa0b 	ldhu	r2,-24(fp)
 400423c:	10800044 	addi	r2,r2,1
 4004240:	e0bffa0d 	sth	r2,-24(fp)
 4004244:	e0bffa0b 	ldhu	r2,-24(fp)
 4004248:	1080010c 	andi	r2,r2,4
 400424c:	1004c03a 	cmpne	r2,r2,zero
 4004250:	1000601e 	bne	r2,zero,40043d4 <alt_read_cfi_width+0x794>
 4004254:	00bffb44 	movi	r2,-19
 4004258:	e0bff915 	stw	r2,-28(fp)
 400425c:	00005d06 	br	40043d4 <alt_read_cfi_width+0x794>
 4004260:	e0bfff17 	ldw	r2,-4(fp)
 4004264:	11000a17 	ldw	r4,40(r2)
 4004268:	01401544 	movi	r5,85
 400426c:	01802604 	movi	r6,152
 4004270:	40032040 	call	4003204 <alt_write_flash_command_32bit_device_8bit_mode>
 4004274:	e03ffb15 	stw	zero,-20(fp)
 4004278:	00000f06 	br	40042b8 <alt_read_cfi_width+0x678>
 400427c:	e13ffb17 	ldw	r4,-20(fp)
 4004280:	e0bfff17 	ldw	r2,-4(fp)
 4004284:	10800a17 	ldw	r2,40(r2)
 4004288:	1007883a 	mov	r3,r2
 400428c:	e0bffb17 	ldw	r2,-20(fp)
 4004290:	1885883a 	add	r2,r3,r2
 4004294:	10801004 	addi	r2,r2,64
 4004298:	10800023 	ldbuio	r2,0(r2)
 400429c:	1007883a 	mov	r3,r2
 40042a0:	e0bffc04 	addi	r2,fp,-16
 40042a4:	1105883a 	add	r2,r2,r4
 40042a8:	10c00005 	stb	r3,0(r2)
 40042ac:	e0bffb17 	ldw	r2,-20(fp)
 40042b0:	10800044 	addi	r2,r2,1
 40042b4:	e0bffb15 	stw	r2,-20(fp)
 40042b8:	e0bffb17 	ldw	r2,-20(fp)
 40042bc:	10800310 	cmplti	r2,r2,12
 40042c0:	103fee1e 	bne	r2,zero,400427c <alt_read_cfi_width+0x63c>
 40042c4:	e0bffc03 	ldbu	r2,-16(fp)
 40042c8:	10803fcc 	andi	r2,r2,255
 40042cc:	10801458 	cmpnei	r2,r2,81
 40042d0:	1000401e 	bne	r2,zero,40043d4 <alt_read_cfi_width+0x794>
 40042d4:	e0bffc43 	ldbu	r2,-15(fp)
 40042d8:	10803fcc 	andi	r2,r2,255
 40042dc:	10801458 	cmpnei	r2,r2,81
 40042e0:	10003c1e 	bne	r2,zero,40043d4 <alt_read_cfi_width+0x794>
 40042e4:	e0bffc83 	ldbu	r2,-14(fp)
 40042e8:	10803fcc 	andi	r2,r2,255
 40042ec:	10801458 	cmpnei	r2,r2,81
 40042f0:	1000381e 	bne	r2,zero,40043d4 <alt_read_cfi_width+0x794>
 40042f4:	e0bffcc3 	ldbu	r2,-13(fp)
 40042f8:	10803fcc 	andi	r2,r2,255
 40042fc:	10801458 	cmpnei	r2,r2,81
 4004300:	1000341e 	bne	r2,zero,40043d4 <alt_read_cfi_width+0x794>
 4004304:	e0bffd03 	ldbu	r2,-12(fp)
 4004308:	10803fcc 	andi	r2,r2,255
 400430c:	10801498 	cmpnei	r2,r2,82
 4004310:	1000301e 	bne	r2,zero,40043d4 <alt_read_cfi_width+0x794>
 4004314:	e0bffd43 	ldbu	r2,-11(fp)
 4004318:	10803fcc 	andi	r2,r2,255
 400431c:	10801498 	cmpnei	r2,r2,82
 4004320:	10002c1e 	bne	r2,zero,40043d4 <alt_read_cfi_width+0x794>
 4004324:	e0bffd83 	ldbu	r2,-10(fp)
 4004328:	10803fcc 	andi	r2,r2,255
 400432c:	10801498 	cmpnei	r2,r2,82
 4004330:	1000281e 	bne	r2,zero,40043d4 <alt_read_cfi_width+0x794>
 4004334:	e0bffdc3 	ldbu	r2,-9(fp)
 4004338:	10803fcc 	andi	r2,r2,255
 400433c:	10801498 	cmpnei	r2,r2,82
 4004340:	1000241e 	bne	r2,zero,40043d4 <alt_read_cfi_width+0x794>
 4004344:	e0bffe03 	ldbu	r2,-8(fp)
 4004348:	10803fcc 	andi	r2,r2,255
 400434c:	10801658 	cmpnei	r2,r2,89
 4004350:	1000201e 	bne	r2,zero,40043d4 <alt_read_cfi_width+0x794>
 4004354:	e0bffe43 	ldbu	r2,-7(fp)
 4004358:	10803fcc 	andi	r2,r2,255
 400435c:	10801658 	cmpnei	r2,r2,89
 4004360:	10001c1e 	bne	r2,zero,40043d4 <alt_read_cfi_width+0x794>
 4004364:	e0bffe83 	ldbu	r2,-6(fp)
 4004368:	10803fcc 	andi	r2,r2,255
 400436c:	10801658 	cmpnei	r2,r2,89
 4004370:	1000181e 	bne	r2,zero,40043d4 <alt_read_cfi_width+0x794>
 4004374:	e0bffec3 	ldbu	r2,-5(fp)
 4004378:	10803fcc 	andi	r2,r2,255
 400437c:	10801658 	cmpnei	r2,r2,89
 4004380:	1000141e 	bne	r2,zero,40043d4 <alt_read_cfi_width+0x794>
 4004384:	e0ffff17 	ldw	r3,-4(fp)
 4004388:	00800044 	movi	r2,1
 400438c:	18802e15 	stw	r2,184(r3)
 4004390:	e0ffff17 	ldw	r3,-4(fp)
 4004394:	00800104 	movi	r2,4
 4004398:	18802f15 	stw	r2,188(r3)
 400439c:	e0bfff17 	ldw	r2,-4(fp)
 40043a0:	10800a17 	ldw	r2,40(r2)
 40043a4:	10802804 	addi	r2,r2,160
 40043a8:	10800037 	ldwio	r2,0(r2)
 40043ac:	e0bffa0d 	sth	r2,-24(fp)
 40043b0:	e0bffa0b 	ldhu	r2,-24(fp)
 40043b4:	10800044 	addi	r2,r2,1
 40043b8:	e0bffa0d 	sth	r2,-24(fp)
 40043bc:	e0bffa0b 	ldhu	r2,-24(fp)
 40043c0:	1080010c 	andi	r2,r2,4
 40043c4:	1004c03a 	cmpne	r2,r2,zero
 40043c8:	1000021e 	bne	r2,zero,40043d4 <alt_read_cfi_width+0x794>
 40043cc:	00bffb44 	movi	r2,-19
 40043d0:	e0bff915 	stw	r2,-28(fp)
 40043d4:	e0bff917 	ldw	r2,-28(fp)
 40043d8:	e037883a 	mov	sp,fp
 40043dc:	dfc00117 	ldw	ra,4(sp)
 40043e0:	df000017 	ldw	fp,0(sp)
 40043e4:	dec00204 	addi	sp,sp,8
 40043e8:	f800283a 	ret

040043ec <alt_check_primary_table>:
 40043ec:	defff904 	addi	sp,sp,-28
 40043f0:	dfc00615 	stw	ra,24(sp)
 40043f4:	df000515 	stw	fp,20(sp)
 40043f8:	dc000415 	stw	r16,16(sp)
 40043fc:	df000404 	addi	fp,sp,16
 4004400:	e13fff15 	stw	r4,-4(fp)
 4004404:	e03ffc15 	stw	zero,-16(fp)
 4004408:	e13fff17 	ldw	r4,-4(fp)
 400440c:	01400544 	movi	r5,21
 4004410:	40036440 	call	4003644 <alt_read_16bit_query_entry>
 4004414:	10ffffcc 	andi	r3,r2,65535
 4004418:	e0bfff17 	ldw	r2,-4(fp)
 400441c:	10c03215 	stw	r3,200(r2)
 4004420:	e03ffd15 	stw	zero,-12(fp)
 4004424:	00001006 	br	4004468 <alt_check_primary_table+0x7c>
 4004428:	e43ffd17 	ldw	r16,-12(fp)
 400442c:	e0bfff17 	ldw	r2,-4(fp)
 4004430:	11803417 	ldw	r6,208(r2)
 4004434:	e0bfff17 	ldw	r2,-4(fp)
 4004438:	10c03217 	ldw	r3,200(r2)
 400443c:	e0bffd17 	ldw	r2,-12(fp)
 4004440:	188b883a 	add	r5,r3,r2
 4004444:	e13fff17 	ldw	r4,-4(fp)
 4004448:	303ee83a 	callr	r6
 400444c:	1007883a 	mov	r3,r2
 4004450:	e0bffe04 	addi	r2,fp,-8
 4004454:	1405883a 	add	r2,r2,r16
 4004458:	10c00005 	stb	r3,0(r2)
 400445c:	e0bffd17 	ldw	r2,-12(fp)
 4004460:	10800044 	addi	r2,r2,1
 4004464:	e0bffd15 	stw	r2,-12(fp)
 4004468:	e0bffd17 	ldw	r2,-12(fp)
 400446c:	108000d0 	cmplti	r2,r2,3
 4004470:	103fed1e 	bne	r2,zero,4004428 <alt_check_primary_table+0x3c>
 4004474:	e0bffe03 	ldbu	r2,-8(fp)
 4004478:	10803fcc 	andi	r2,r2,255
 400447c:	10801418 	cmpnei	r2,r2,80
 4004480:	1000081e 	bne	r2,zero,40044a4 <alt_check_primary_table+0xb8>
 4004484:	e0bffe43 	ldbu	r2,-7(fp)
 4004488:	10803fcc 	andi	r2,r2,255
 400448c:	10801498 	cmpnei	r2,r2,82
 4004490:	1000041e 	bne	r2,zero,40044a4 <alt_check_primary_table+0xb8>
 4004494:	e0bffe83 	ldbu	r2,-6(fp)
 4004498:	10803fcc 	andi	r2,r2,255
 400449c:	10801260 	cmpeqi	r2,r2,73
 40044a0:	1000021e 	bne	r2,zero,40044ac <alt_check_primary_table+0xc0>
 40044a4:	00bffb44 	movi	r2,-19
 40044a8:	e0bffc15 	stw	r2,-16(fp)
 40044ac:	e0bffc17 	ldw	r2,-16(fp)
 40044b0:	e037883a 	mov	sp,fp
 40044b4:	dfc00217 	ldw	ra,8(sp)
 40044b8:	df000117 	ldw	fp,4(sp)
 40044bc:	dc000017 	ldw	r16,0(sp)
 40044c0:	dec00304 	addi	sp,sp,12
 40044c4:	f800283a 	ret

040044c8 <alt_epcs_flash_init>:
 40044c8:	defffc04 	addi	sp,sp,-16
 40044cc:	dfc00315 	stw	ra,12(sp)
 40044d0:	df000215 	stw	fp,8(sp)
 40044d4:	df000204 	addi	fp,sp,8
 40044d8:	e13fff15 	stw	r4,-4(fp)
 40044dc:	e03ffe15 	stw	zero,-8(fp)
 40044e0:	e13fff17 	ldw	r4,-4(fp)
 40044e4:	40045540 	call	4004554 <alt_epcs_flash_query>
 40044e8:	e0bffe15 	stw	r2,-8(fp)
 40044ec:	e0bffe17 	ldw	r2,-8(fp)
 40044f0:	1004c03a 	cmpne	r2,r2,zero
 40044f4:	1000031e 	bne	r2,zero,4004504 <alt_epcs_flash_init+0x3c>
 40044f8:	e13fff17 	ldw	r4,-4(fp)
 40044fc:	400451c0 	call	400451c <alt_flash_device_register>
 4004500:	e0bffe15 	stw	r2,-8(fp)
 4004504:	e0bffe17 	ldw	r2,-8(fp)
 4004508:	e037883a 	mov	sp,fp
 400450c:	dfc00117 	ldw	ra,4(sp)
 4004510:	df000017 	ldw	fp,0(sp)
 4004514:	dec00204 	addi	sp,sp,8
 4004518:	f800283a 	ret

0400451c <alt_flash_device_register>:
 400451c:	defffd04 	addi	sp,sp,-12
 4004520:	dfc00215 	stw	ra,8(sp)
 4004524:	df000115 	stw	fp,4(sp)
 4004528:	df000104 	addi	fp,sp,4
 400452c:	e13fff15 	stw	r4,-4(fp)
 4004530:	e13fff17 	ldw	r4,-4(fp)
 4004534:	01410074 	movhi	r5,1025
 4004538:	296c8a04 	addi	r5,r5,-19928
 400453c:	4006c580 	call	4006c58 <alt_dev_llist_insert>
 4004540:	e037883a 	mov	sp,fp
 4004544:	dfc00117 	ldw	ra,4(sp)
 4004548:	df000017 	ldw	fp,0(sp)
 400454c:	dec00204 	addi	sp,sp,8
 4004550:	f800283a 	ret

04004554 <alt_epcs_flash_query>:
 4004554:	defffc04 	addi	sp,sp,-16
 4004558:	dfc00315 	stw	ra,12(sp)
 400455c:	df000215 	stw	fp,8(sp)
 4004560:	df000204 	addi	fp,sp,8
 4004564:	e13fff15 	stw	r4,-4(fp)
 4004568:	e03ffe15 	stw	zero,-8(fp)
 400456c:	e0bfff17 	ldw	r2,-4(fp)
 4004570:	11002d17 	ldw	r4,180(r2)
 4004574:	40066e40 	call	40066e4 <epcs_read_electronic_signature>
 4004578:	10c03fcc 	andi	r3,r2,255
 400457c:	e0bfff17 	ldw	r2,-4(fp)
 4004580:	10c02f15 	stw	r3,188(r2)
 4004584:	e0bfff17 	ldw	r2,-4(fp)
 4004588:	10802f17 	ldw	r2,188(r2)
 400458c:	10800598 	cmpnei	r2,r2,22
 4004590:	10000a1e 	bne	r2,zero,40045bc <alt_epcs_flash_query+0x68>
 4004594:	e0ffff17 	ldw	r3,-4(fp)
 4004598:	00802034 	movhi	r2,128
 400459c:	18800e15 	stw	r2,56(r3)
 40045a0:	e0ffff17 	ldw	r3,-4(fp)
 40045a4:	00802004 	movi	r2,128
 40045a8:	18800f15 	stw	r2,60(r3)
 40045ac:	e0ffff17 	ldw	r3,-4(fp)
 40045b0:	00800074 	movhi	r2,1
 40045b4:	18801015 	stw	r2,64(r3)
 40045b8:	00004e06 	br	40046f4 <alt_epcs_flash_query+0x1a0>
 40045bc:	e0bfff17 	ldw	r2,-4(fp)
 40045c0:	10802f17 	ldw	r2,188(r2)
 40045c4:	10800518 	cmpnei	r2,r2,20
 40045c8:	10000a1e 	bne	r2,zero,40045f4 <alt_epcs_flash_query+0xa0>
 40045cc:	e0ffff17 	ldw	r3,-4(fp)
 40045d0:	00800834 	movhi	r2,32
 40045d4:	18800e15 	stw	r2,56(r3)
 40045d8:	e0ffff17 	ldw	r3,-4(fp)
 40045dc:	00800804 	movi	r2,32
 40045e0:	18800f15 	stw	r2,60(r3)
 40045e4:	e0ffff17 	ldw	r3,-4(fp)
 40045e8:	00800074 	movhi	r2,1
 40045ec:	18801015 	stw	r2,64(r3)
 40045f0:	00004006 	br	40046f4 <alt_epcs_flash_query+0x1a0>
 40045f4:	e0bfff17 	ldw	r2,-4(fp)
 40045f8:	10802f17 	ldw	r2,188(r2)
 40045fc:	108004d8 	cmpnei	r2,r2,19
 4004600:	10000a1e 	bne	r2,zero,400462c <alt_epcs_flash_query+0xd8>
 4004604:	e0ffff17 	ldw	r3,-4(fp)
 4004608:	00800434 	movhi	r2,16
 400460c:	18800e15 	stw	r2,56(r3)
 4004610:	e0ffff17 	ldw	r3,-4(fp)
 4004614:	00800404 	movi	r2,16
 4004618:	18800f15 	stw	r2,60(r3)
 400461c:	e0ffff17 	ldw	r3,-4(fp)
 4004620:	00800074 	movhi	r2,1
 4004624:	18801015 	stw	r2,64(r3)
 4004628:	00003206 	br	40046f4 <alt_epcs_flash_query+0x1a0>
 400462c:	e0bfff17 	ldw	r2,-4(fp)
 4004630:	10802f17 	ldw	r2,188(r2)
 4004634:	10800498 	cmpnei	r2,r2,18
 4004638:	10000a1e 	bne	r2,zero,4004664 <alt_epcs_flash_query+0x110>
 400463c:	e0ffff17 	ldw	r3,-4(fp)
 4004640:	00800234 	movhi	r2,8
 4004644:	18800e15 	stw	r2,56(r3)
 4004648:	e0ffff17 	ldw	r3,-4(fp)
 400464c:	00800204 	movi	r2,8
 4004650:	18800f15 	stw	r2,60(r3)
 4004654:	e0ffff17 	ldw	r3,-4(fp)
 4004658:	00800074 	movhi	r2,1
 400465c:	18801015 	stw	r2,64(r3)
 4004660:	00002406 	br	40046f4 <alt_epcs_flash_query+0x1a0>
 4004664:	e0bfff17 	ldw	r2,-4(fp)
 4004668:	10802f17 	ldw	r2,188(r2)
 400466c:	10800418 	cmpnei	r2,r2,16
 4004670:	10000a1e 	bne	r2,zero,400469c <alt_epcs_flash_query+0x148>
 4004674:	e0ffff17 	ldw	r3,-4(fp)
 4004678:	008000b4 	movhi	r2,2
 400467c:	18800e15 	stw	r2,56(r3)
 4004680:	e0ffff17 	ldw	r3,-4(fp)
 4004684:	00800104 	movi	r2,4
 4004688:	18800f15 	stw	r2,60(r3)
 400468c:	e0ffff17 	ldw	r3,-4(fp)
 4004690:	00a00014 	movui	r2,32768
 4004694:	18801015 	stw	r2,64(r3)
 4004698:	00001606 	br	40046f4 <alt_epcs_flash_query+0x1a0>
 400469c:	e0bfff17 	ldw	r2,-4(fp)
 40046a0:	11002d17 	ldw	r4,180(r2)
 40046a4:	40067500 	call	4006750 <epcs_read_device_id>
 40046a8:	10c03fcc 	andi	r3,r2,255
 40046ac:	e0bfff17 	ldw	r2,-4(fp)
 40046b0:	10c02f15 	stw	r3,188(r2)
 40046b4:	e0bfff17 	ldw	r2,-4(fp)
 40046b8:	10802f17 	ldw	r2,188(r2)
 40046bc:	10800618 	cmpnei	r2,r2,24
 40046c0:	10000a1e 	bne	r2,zero,40046ec <alt_epcs_flash_query+0x198>
 40046c4:	e0ffff17 	ldw	r3,-4(fp)
 40046c8:	00804034 	movhi	r2,256
 40046cc:	18800e15 	stw	r2,56(r3)
 40046d0:	e0ffff17 	ldw	r3,-4(fp)
 40046d4:	00801004 	movi	r2,64
 40046d8:	18800f15 	stw	r2,60(r3)
 40046dc:	e0ffff17 	ldw	r3,-4(fp)
 40046e0:	00800134 	movhi	r2,4
 40046e4:	18801015 	stw	r2,64(r3)
 40046e8:	00000206 	br	40046f4 <alt_epcs_flash_query+0x1a0>
 40046ec:	00bffb44 	movi	r2,-19
 40046f0:	e0bffe15 	stw	r2,-8(fp)
 40046f4:	e0bfff17 	ldw	r2,-4(fp)
 40046f8:	10800e17 	ldw	r2,56(r2)
 40046fc:	1007883a 	mov	r3,r2
 4004700:	e0bfff17 	ldw	r2,-4(fp)
 4004704:	10c02e15 	stw	r3,184(r2)
 4004708:	e0ffff17 	ldw	r3,-4(fp)
 400470c:	00800044 	movi	r2,1
 4004710:	18800c15 	stw	r2,48(r3)
 4004714:	e0bfff17 	ldw	r2,-4(fp)
 4004718:	10000d15 	stw	zero,52(r2)
 400471c:	e0ffff17 	ldw	r3,-4(fp)
 4004720:	00804004 	movi	r2,256
 4004724:	18803015 	stw	r2,192(r3)
 4004728:	e0bffe17 	ldw	r2,-8(fp)
 400472c:	e037883a 	mov	sp,fp
 4004730:	dfc00117 	ldw	ra,4(sp)
 4004734:	df000017 	ldw	fp,0(sp)
 4004738:	dec00204 	addi	sp,sp,8
 400473c:	f800283a 	ret

04004740 <alt_epcs_flash_memcmp>:
 4004740:	deffeb04 	addi	sp,sp,-84
 4004744:	dfc01415 	stw	ra,80(sp)
 4004748:	df001315 	stw	fp,76(sp)
 400474c:	df001304 	addi	fp,sp,76
 4004750:	e13ff915 	stw	r4,-28(fp)
 4004754:	e17ffa15 	stw	r5,-24(fp)
 4004758:	e1bffb15 	stw	r6,-20(fp)
 400475c:	e1fffc15 	stw	r7,-16(fp)
 4004760:	00800804 	movi	r2,32
 4004764:	e0bff015 	stw	r2,-64(fp)
 4004768:	e03fef15 	stw	zero,-68(fp)
 400476c:	00002c06 	br	4004820 <alt_epcs_flash_memcmp+0xe0>
 4004770:	e0bff017 	ldw	r2,-64(fp)
 4004774:	e0bfff15 	stw	r2,-4(fp)
 4004778:	e0fffc17 	ldw	r3,-16(fp)
 400477c:	e0fffe15 	stw	r3,-8(fp)
 4004780:	e0bfff17 	ldw	r2,-4(fp)
 4004784:	e0fffe17 	ldw	r3,-8(fp)
 4004788:	10c0022e 	bgeu	r2,r3,4004794 <alt_epcs_flash_memcmp+0x54>
 400478c:	e0bfff17 	ldw	r2,-4(fp)
 4004790:	e0bffe15 	stw	r2,-8(fp)
 4004794:	e0fffe17 	ldw	r3,-8(fp)
 4004798:	e0ffee15 	stw	r3,-72(fp)
 400479c:	e0fffb17 	ldw	r3,-20(fp)
 40047a0:	e0bfef17 	ldw	r2,-68(fp)
 40047a4:	188b883a 	add	r5,r3,r2
 40047a8:	e1bff104 	addi	r6,fp,-60
 40047ac:	e13ff917 	ldw	r4,-28(fp)
 40047b0:	e1ffee17 	ldw	r7,-72(fp)
 40047b4:	4004d700 	call	4004d70 <alt_epcs_flash_read>
 40047b8:	1004403a 	cmpge	r2,r2,zero
 40047bc:	1000031e 	bne	r2,zero,40047cc <alt_epcs_flash_memcmp+0x8c>
 40047c0:	00bfffc4 	movi	r2,-1
 40047c4:	e0bffd15 	stw	r2,-12(fp)
 40047c8:	00001906 	br	4004830 <alt_epcs_flash_memcmp+0xf0>
 40047cc:	e0fffa17 	ldw	r3,-24(fp)
 40047d0:	e0bfef17 	ldw	r2,-68(fp)
 40047d4:	1889883a 	add	r4,r3,r2
 40047d8:	e1bfee17 	ldw	r6,-72(fp)
 40047dc:	e17ff104 	addi	r5,fp,-60
 40047e0:	40085a40 	call	40085a4 <memcmp>
 40047e4:	e0bfed15 	stw	r2,-76(fp)
 40047e8:	e0bfed17 	ldw	r2,-76(fp)
 40047ec:	1005003a 	cmpeq	r2,r2,zero
 40047f0:	1000031e 	bne	r2,zero,4004800 <alt_epcs_flash_memcmp+0xc0>
 40047f4:	e0ffed17 	ldw	r3,-76(fp)
 40047f8:	e0fffd15 	stw	r3,-12(fp)
 40047fc:	00000c06 	br	4004830 <alt_epcs_flash_memcmp+0xf0>
 4004800:	e0ffee17 	ldw	r3,-72(fp)
 4004804:	e0bffc17 	ldw	r2,-16(fp)
 4004808:	10c5c83a 	sub	r2,r2,r3
 400480c:	e0bffc15 	stw	r2,-16(fp)
 4004810:	e0ffef17 	ldw	r3,-68(fp)
 4004814:	e0bfee17 	ldw	r2,-72(fp)
 4004818:	1885883a 	add	r2,r3,r2
 400481c:	e0bfef15 	stw	r2,-68(fp)
 4004820:	e0bffc17 	ldw	r2,-16(fp)
 4004824:	1004c03a 	cmpne	r2,r2,zero
 4004828:	103fd11e 	bne	r2,zero,4004770 <alt_epcs_flash_memcmp+0x30>
 400482c:	e03ffd15 	stw	zero,-12(fp)
 4004830:	e0bffd17 	ldw	r2,-12(fp)
 4004834:	e037883a 	mov	sp,fp
 4004838:	dfc00117 	ldw	ra,4(sp)
 400483c:	df000017 	ldw	fp,0(sp)
 4004840:	dec00204 	addi	sp,sp,8
 4004844:	f800283a 	ret

04004848 <alt_epcs_flash_write>:
 4004848:	defff204 	addi	sp,sp,-56
 400484c:	dfc00d15 	stw	ra,52(sp)
 4004850:	df000c15 	stw	fp,48(sp)
 4004854:	df000c04 	addi	fp,sp,48
 4004858:	e13ffa15 	stw	r4,-24(fp)
 400485c:	e17ffb15 	stw	r5,-20(fp)
 4004860:	e1bffc15 	stw	r6,-16(fp)
 4004864:	e1fffd15 	stw	r7,-12(fp)
 4004868:	e03ff915 	stw	zero,-28(fp)
 400486c:	e03ff815 	stw	zero,-32(fp)
 4004870:	00008b06 	br	4004aa0 <alt_epcs_flash_write+0x258>
 4004874:	e0bff817 	ldw	r2,-32(fp)
 4004878:	e0fffa17 	ldw	r3,-24(fp)
 400487c:	1004913a 	slli	r2,r2,4
 4004880:	10c5883a 	add	r2,r2,r3
 4004884:	10800d04 	addi	r2,r2,52
 4004888:	10c00017 	ldw	r3,0(r2)
 400488c:	e0bffb17 	ldw	r2,-20(fp)
 4004890:	10c08016 	blt	r2,r3,4004a94 <alt_epcs_flash_write+0x24c>
 4004894:	e0bff817 	ldw	r2,-32(fp)
 4004898:	e0fffa17 	ldw	r3,-24(fp)
 400489c:	1004913a 	slli	r2,r2,4
 40048a0:	10c5883a 	add	r2,r2,r3
 40048a4:	10800d04 	addi	r2,r2,52
 40048a8:	11000017 	ldw	r4,0(r2)
 40048ac:	e0bff817 	ldw	r2,-32(fp)
 40048b0:	e0fffa17 	ldw	r3,-24(fp)
 40048b4:	1004913a 	slli	r2,r2,4
 40048b8:	10c5883a 	add	r2,r2,r3
 40048bc:	10800e04 	addi	r2,r2,56
 40048c0:	10800017 	ldw	r2,0(r2)
 40048c4:	2087883a 	add	r3,r4,r2
 40048c8:	e0bffb17 	ldw	r2,-20(fp)
 40048cc:	10c0710e 	bge	r2,r3,4004a94 <alt_epcs_flash_write+0x24c>
 40048d0:	e0bff817 	ldw	r2,-32(fp)
 40048d4:	e0fffa17 	ldw	r3,-24(fp)
 40048d8:	1004913a 	slli	r2,r2,4
 40048dc:	10c5883a 	add	r2,r2,r3
 40048e0:	10800d04 	addi	r2,r2,52
 40048e4:	10800017 	ldw	r2,0(r2)
 40048e8:	e0bff515 	stw	r2,-44(fp)
 40048ec:	e03ff715 	stw	zero,-36(fp)
 40048f0:	00006006 	br	4004a74 <alt_epcs_flash_write+0x22c>
 40048f4:	e0fffb17 	ldw	r3,-20(fp)
 40048f8:	e0bff517 	ldw	r2,-44(fp)
 40048fc:	18805116 	blt	r3,r2,4004a44 <alt_epcs_flash_write+0x1fc>
 4004900:	e0bff817 	ldw	r2,-32(fp)
 4004904:	e0fffa17 	ldw	r3,-24(fp)
 4004908:	1004913a 	slli	r2,r2,4
 400490c:	10c5883a 	add	r2,r2,r3
 4004910:	10801004 	addi	r2,r2,64
 4004914:	10c00017 	ldw	r3,0(r2)
 4004918:	e0bff517 	ldw	r2,-44(fp)
 400491c:	1887883a 	add	r3,r3,r2
 4004920:	e0bffb17 	ldw	r2,-20(fp)
 4004924:	10c0470e 	bge	r2,r3,4004a44 <alt_epcs_flash_write+0x1fc>
 4004928:	e0bff817 	ldw	r2,-32(fp)
 400492c:	e0fffa17 	ldw	r3,-24(fp)
 4004930:	1004913a 	slli	r2,r2,4
 4004934:	10c5883a 	add	r2,r2,r3
 4004938:	10801004 	addi	r2,r2,64
 400493c:	10c00017 	ldw	r3,0(r2)
 4004940:	e0bff517 	ldw	r2,-44(fp)
 4004944:	1887883a 	add	r3,r3,r2
 4004948:	e0bffb17 	ldw	r2,-20(fp)
 400494c:	1885c83a 	sub	r2,r3,r2
 4004950:	e0bff615 	stw	r2,-40(fp)
 4004954:	e0bff617 	ldw	r2,-40(fp)
 4004958:	e0bfff15 	stw	r2,-4(fp)
 400495c:	e0fffd17 	ldw	r3,-12(fp)
 4004960:	e0fffe15 	stw	r3,-8(fp)
 4004964:	e0bfff17 	ldw	r2,-4(fp)
 4004968:	e0fffe17 	ldw	r3,-8(fp)
 400496c:	10c0020e 	bge	r2,r3,4004978 <alt_epcs_flash_write+0x130>
 4004970:	e0bfff17 	ldw	r2,-4(fp)
 4004974:	e0bffe15 	stw	r2,-8(fp)
 4004978:	e0fffe17 	ldw	r3,-8(fp)
 400497c:	e0fff615 	stw	r3,-40(fp)
 4004980:	e1fff617 	ldw	r7,-40(fp)
 4004984:	e13ffa17 	ldw	r4,-24(fp)
 4004988:	e17ffc17 	ldw	r5,-16(fp)
 400498c:	e1bffb17 	ldw	r6,-20(fp)
 4004990:	40047400 	call	4004740 <alt_epcs_flash_memcmp>
 4004994:	1005003a 	cmpeq	r2,r2,zero
 4004998:	1000131e 	bne	r2,zero,40049e8 <alt_epcs_flash_write+0x1a0>
 400499c:	e0bffa17 	ldw	r2,-24(fp)
 40049a0:	10800817 	ldw	r2,32(r2)
 40049a4:	e13ffa17 	ldw	r4,-24(fp)
 40049a8:	e17ff517 	ldw	r5,-44(fp)
 40049ac:	103ee83a 	callr	r2
 40049b0:	e0bff915 	stw	r2,-28(fp)
 40049b4:	e0bff917 	ldw	r2,-28(fp)
 40049b8:	1004c03a 	cmpne	r2,r2,zero
 40049bc:	10000a1e 	bne	r2,zero,40049e8 <alt_epcs_flash_write+0x1a0>
 40049c0:	e0bffa17 	ldw	r2,-24(fp)
 40049c4:	10c00917 	ldw	r3,36(r2)
 40049c8:	e0bff617 	ldw	r2,-40(fp)
 40049cc:	d8800015 	stw	r2,0(sp)
 40049d0:	e13ffa17 	ldw	r4,-24(fp)
 40049d4:	e17ff517 	ldw	r5,-44(fp)
 40049d8:	e1bffb17 	ldw	r6,-20(fp)
 40049dc:	e1fffc17 	ldw	r7,-16(fp)
 40049e0:	183ee83a 	callr	r3
 40049e4:	e0bff915 	stw	r2,-28(fp)
 40049e8:	e0fffd17 	ldw	r3,-12(fp)
 40049ec:	e0bff617 	ldw	r2,-40(fp)
 40049f0:	18802f26 	beq	r3,r2,4004ab0 <alt_epcs_flash_write+0x268>
 40049f4:	e0bff917 	ldw	r2,-28(fp)
 40049f8:	1004c03a 	cmpne	r2,r2,zero
 40049fc:	10002c1e 	bne	r2,zero,4004ab0 <alt_epcs_flash_write+0x268>
 4004a00:	e0fffd17 	ldw	r3,-12(fp)
 4004a04:	e0bff617 	ldw	r2,-40(fp)
 4004a08:	1885c83a 	sub	r2,r3,r2
 4004a0c:	e0bffd15 	stw	r2,-12(fp)
 4004a10:	e0bff817 	ldw	r2,-32(fp)
 4004a14:	e0fffa17 	ldw	r3,-24(fp)
 4004a18:	1004913a 	slli	r2,r2,4
 4004a1c:	10c5883a 	add	r2,r2,r3
 4004a20:	10801004 	addi	r2,r2,64
 4004a24:	10c00017 	ldw	r3,0(r2)
 4004a28:	e0bff517 	ldw	r2,-44(fp)
 4004a2c:	1885883a 	add	r2,r3,r2
 4004a30:	e0bffb15 	stw	r2,-20(fp)
 4004a34:	e0fffc17 	ldw	r3,-16(fp)
 4004a38:	e0bff617 	ldw	r2,-40(fp)
 4004a3c:	1885883a 	add	r2,r3,r2
 4004a40:	e0bffc15 	stw	r2,-16(fp)
 4004a44:	e0bff817 	ldw	r2,-32(fp)
 4004a48:	e0fffa17 	ldw	r3,-24(fp)
 4004a4c:	1004913a 	slli	r2,r2,4
 4004a50:	10c5883a 	add	r2,r2,r3
 4004a54:	10801004 	addi	r2,r2,64
 4004a58:	10c00017 	ldw	r3,0(r2)
 4004a5c:	e0bff517 	ldw	r2,-44(fp)
 4004a60:	10c5883a 	add	r2,r2,r3
 4004a64:	e0bff515 	stw	r2,-44(fp)
 4004a68:	e0bff717 	ldw	r2,-36(fp)
 4004a6c:	10800044 	addi	r2,r2,1
 4004a70:	e0bff715 	stw	r2,-36(fp)
 4004a74:	e0bff817 	ldw	r2,-32(fp)
 4004a78:	e0fffa17 	ldw	r3,-24(fp)
 4004a7c:	1004913a 	slli	r2,r2,4
 4004a80:	10c5883a 	add	r2,r2,r3
 4004a84:	10800f04 	addi	r2,r2,60
 4004a88:	10c00017 	ldw	r3,0(r2)
 4004a8c:	e0bff717 	ldw	r2,-36(fp)
 4004a90:	10ff9816 	blt	r2,r3,40048f4 <alt_epcs_flash_write+0xac>
 4004a94:	e0bff817 	ldw	r2,-32(fp)
 4004a98:	10800044 	addi	r2,r2,1
 4004a9c:	e0bff815 	stw	r2,-32(fp)
 4004aa0:	e0bffa17 	ldw	r2,-24(fp)
 4004aa4:	10c00c17 	ldw	r3,48(r2)
 4004aa8:	e0bff817 	ldw	r2,-32(fp)
 4004aac:	10ff7116 	blt	r2,r3,4004874 <alt_epcs_flash_write+0x2c>
 4004ab0:	e0bff917 	ldw	r2,-28(fp)
 4004ab4:	e037883a 	mov	sp,fp
 4004ab8:	dfc00117 	ldw	ra,4(sp)
 4004abc:	df000017 	ldw	fp,0(sp)
 4004ac0:	dec00204 	addi	sp,sp,8
 4004ac4:	f800283a 	ret

04004ac8 <alt_epcs_flash_get_info>:
 4004ac8:	defffa04 	addi	sp,sp,-24
 4004acc:	df000515 	stw	fp,20(sp)
 4004ad0:	df000504 	addi	fp,sp,20
 4004ad4:	e13ffd15 	stw	r4,-12(fp)
 4004ad8:	e17ffe15 	stw	r5,-8(fp)
 4004adc:	e1bfff15 	stw	r6,-4(fp)
 4004ae0:	e03ffc15 	stw	zero,-16(fp)
 4004ae4:	e0bffd17 	ldw	r2,-12(fp)
 4004ae8:	e0bffb15 	stw	r2,-20(fp)
 4004aec:	e0bffb17 	ldw	r2,-20(fp)
 4004af0:	10c00c17 	ldw	r3,48(r2)
 4004af4:	e0bfff17 	ldw	r2,-4(fp)
 4004af8:	10c00015 	stw	r3,0(r2)
 4004afc:	e0bffb17 	ldw	r2,-20(fp)
 4004b00:	10800c17 	ldw	r2,48(r2)
 4004b04:	1004c03a 	cmpne	r2,r2,zero
 4004b08:	1000031e 	bne	r2,zero,4004b18 <alt_epcs_flash_get_info+0x50>
 4004b0c:	00bffec4 	movi	r2,-5
 4004b10:	e0bffc15 	stw	r2,-16(fp)
 4004b14:	00000b06 	br	4004b44 <alt_epcs_flash_get_info+0x7c>
 4004b18:	e0bffb17 	ldw	r2,-20(fp)
 4004b1c:	10800c17 	ldw	r2,48(r2)
 4004b20:	10800250 	cmplti	r2,r2,9
 4004b24:	1000031e 	bne	r2,zero,4004b34 <alt_epcs_flash_get_info+0x6c>
 4004b28:	00bffd04 	movi	r2,-12
 4004b2c:	e0bffc15 	stw	r2,-16(fp)
 4004b30:	00000406 	br	4004b44 <alt_epcs_flash_get_info+0x7c>
 4004b34:	e0bffb17 	ldw	r2,-20(fp)
 4004b38:	10c00d04 	addi	r3,r2,52
 4004b3c:	e0bffe17 	ldw	r2,-8(fp)
 4004b40:	10c00015 	stw	r3,0(r2)
 4004b44:	e0bffc17 	ldw	r2,-16(fp)
 4004b48:	e037883a 	mov	sp,fp
 4004b4c:	df000017 	ldw	fp,0(sp)
 4004b50:	dec00104 	addi	sp,sp,4
 4004b54:	f800283a 	ret

04004b58 <alt_epcs_flash_erase_block>:
 4004b58:	defffa04 	addi	sp,sp,-24
 4004b5c:	dfc00515 	stw	ra,20(sp)
 4004b60:	df000415 	stw	fp,16(sp)
 4004b64:	df000404 	addi	fp,sp,16
 4004b68:	e13ffe15 	stw	r4,-8(fp)
 4004b6c:	e17fff15 	stw	r5,-4(fp)
 4004b70:	e03ffd15 	stw	zero,-12(fp)
 4004b74:	e0bffe17 	ldw	r2,-8(fp)
 4004b78:	e0bffc15 	stw	r2,-16(fp)
 4004b7c:	e13ffe17 	ldw	r4,-8(fp)
 4004b80:	e17fff17 	ldw	r5,-4(fp)
 4004b84:	4004bcc0 	call	4004bcc <alt_epcs_test_address>
 4004b88:	e0bffd15 	stw	r2,-12(fp)
 4004b8c:	e0bffd17 	ldw	r2,-12(fp)
 4004b90:	1004803a 	cmplt	r2,r2,zero
 4004b94:	1000071e 	bne	r2,zero,4004bb4 <alt_epcs_flash_erase_block+0x5c>
 4004b98:	e0bffc17 	ldw	r2,-16(fp)
 4004b9c:	11002d17 	ldw	r4,180(r2)
 4004ba0:	40065580 	call	4006558 <epcs_write_enable>
 4004ba4:	e0bffc17 	ldw	r2,-16(fp)
 4004ba8:	11002d17 	ldw	r4,180(r2)
 4004bac:	e17fff17 	ldw	r5,-4(fp)
 4004bb0:	40063b80 	call	40063b8 <epcs_sector_erase>
 4004bb4:	e0bffd17 	ldw	r2,-12(fp)
 4004bb8:	e037883a 	mov	sp,fp
 4004bbc:	dfc00117 	ldw	ra,4(sp)
 4004bc0:	df000017 	ldw	fp,0(sp)
 4004bc4:	dec00204 	addi	sp,sp,8
 4004bc8:	f800283a 	ret

04004bcc <alt_epcs_test_address>:
 4004bcc:	defff904 	addi	sp,sp,-28
 4004bd0:	df000615 	stw	fp,24(sp)
 4004bd4:	df000604 	addi	fp,sp,24
 4004bd8:	e13ffe15 	stw	r4,-8(fp)
 4004bdc:	e17fff15 	stw	r5,-4(fp)
 4004be0:	e03ffd15 	stw	zero,-12(fp)
 4004be4:	e0bffe17 	ldw	r2,-8(fp)
 4004be8:	e0bffc15 	stw	r2,-16(fp)
 4004bec:	e0bffc17 	ldw	r2,-16(fp)
 4004bf0:	10800c17 	ldw	r2,48(r2)
 4004bf4:	10bfffc4 	addi	r2,r2,-1
 4004bf8:	e0bffb15 	stw	r2,-20(fp)
 4004bfc:	e0bffb17 	ldw	r2,-20(fp)
 4004c00:	e0fffc17 	ldw	r3,-16(fp)
 4004c04:	1004913a 	slli	r2,r2,4
 4004c08:	10c5883a 	add	r2,r2,r3
 4004c0c:	10800d04 	addi	r2,r2,52
 4004c10:	11000017 	ldw	r4,0(r2)
 4004c14:	e0bffb17 	ldw	r2,-20(fp)
 4004c18:	e0fffc17 	ldw	r3,-16(fp)
 4004c1c:	1004913a 	slli	r2,r2,4
 4004c20:	10c5883a 	add	r2,r2,r3
 4004c24:	10800e04 	addi	r2,r2,56
 4004c28:	10800017 	ldw	r2,0(r2)
 4004c2c:	2085883a 	add	r2,r4,r2
 4004c30:	10bfffc4 	addi	r2,r2,-1
 4004c34:	e0bffa15 	stw	r2,-24(fp)
 4004c38:	e0ffff17 	ldw	r3,-4(fp)
 4004c3c:	e0bffa17 	ldw	r2,-24(fp)
 4004c40:	10c0022e 	bgeu	r2,r3,4004c4c <alt_epcs_test_address+0x80>
 4004c44:	00bffec4 	movi	r2,-5
 4004c48:	e0bffd15 	stw	r2,-12(fp)
 4004c4c:	e0bffd17 	ldw	r2,-12(fp)
 4004c50:	e037883a 	mov	sp,fp
 4004c54:	df000017 	ldw	fp,0(sp)
 4004c58:	dec00104 	addi	sp,sp,4
 4004c5c:	f800283a 	ret

04004c60 <alt_epcs_flash_write_block>:
 4004c60:	defff304 	addi	sp,sp,-52
 4004c64:	dfc00c15 	stw	ra,48(sp)
 4004c68:	df000b15 	stw	fp,44(sp)
 4004c6c:	df000b04 	addi	fp,sp,44
 4004c70:	e13ffa15 	stw	r4,-24(fp)
 4004c74:	e17ffb15 	stw	r5,-20(fp)
 4004c78:	e1bffc15 	stw	r6,-16(fp)
 4004c7c:	e1fffd15 	stw	r7,-12(fp)
 4004c80:	e0bffa17 	ldw	r2,-24(fp)
 4004c84:	e0bff815 	stw	r2,-32(fp)
 4004c88:	e03ff715 	stw	zero,-36(fp)
 4004c8c:	e13ffa17 	ldw	r4,-24(fp)
 4004c90:	e17ffc17 	ldw	r5,-16(fp)
 4004c94:	4004bcc0 	call	4004bcc <alt_epcs_test_address>
 4004c98:	e0bff915 	stw	r2,-28(fp)
 4004c9c:	e0bff917 	ldw	r2,-28(fp)
 4004ca0:	1004803a 	cmplt	r2,r2,zero
 4004ca4:	10002c1e 	bne	r2,zero,4004d58 <alt_epcs_flash_write_block+0xf8>
 4004ca8:	00002806 	br	4004d4c <alt_epcs_flash_write_block+0xec>
 4004cac:	e0bff817 	ldw	r2,-32(fp)
 4004cb0:	10c03017 	ldw	r3,192(r2)
 4004cb4:	e0bffc17 	ldw	r2,-16(fp)
 4004cb8:	1887883a 	add	r3,r3,r2
 4004cbc:	e0bff817 	ldw	r2,-32(fp)
 4004cc0:	10803017 	ldw	r2,192(r2)
 4004cc4:	0085c83a 	sub	r2,zero,r2
 4004cc8:	1884703a 	and	r2,r3,r2
 4004ccc:	e0bff515 	stw	r2,-44(fp)
 4004cd0:	e0fff517 	ldw	r3,-44(fp)
 4004cd4:	e0bffc17 	ldw	r2,-16(fp)
 4004cd8:	1885c83a 	sub	r2,r3,r2
 4004cdc:	e0c00217 	ldw	r3,8(fp)
 4004ce0:	e0ffff15 	stw	r3,-4(fp)
 4004ce4:	e0bffe15 	stw	r2,-8(fp)
 4004ce8:	e0bfff17 	ldw	r2,-4(fp)
 4004cec:	e0fffe17 	ldw	r3,-8(fp)
 4004cf0:	10c0020e 	bge	r2,r3,4004cfc <alt_epcs_flash_write_block+0x9c>
 4004cf4:	e0bfff17 	ldw	r2,-4(fp)
 4004cf8:	e0bffe15 	stw	r2,-8(fp)
 4004cfc:	e0fffe17 	ldw	r3,-8(fp)
 4004d00:	e0fff615 	stw	r3,-40(fp)
 4004d04:	e0bff817 	ldw	r2,-32(fp)
 4004d08:	11002d17 	ldw	r4,180(r2)
 4004d0c:	e0fffd17 	ldw	r3,-12(fp)
 4004d10:	e0bff717 	ldw	r2,-36(fp)
 4004d14:	188d883a 	add	r6,r3,r2
 4004d18:	e17ffc17 	ldw	r5,-16(fp)
 4004d1c:	e1fff617 	ldw	r7,-40(fp)
 4004d20:	400660c0 	call	400660c <epcs_write_buffer>
 4004d24:	e0c00217 	ldw	r3,8(fp)
 4004d28:	e0bff617 	ldw	r2,-40(fp)
 4004d2c:	1885c83a 	sub	r2,r3,r2
 4004d30:	e0800215 	stw	r2,8(fp)
 4004d34:	e0fff717 	ldw	r3,-36(fp)
 4004d38:	e0bff617 	ldw	r2,-40(fp)
 4004d3c:	1885883a 	add	r2,r3,r2
 4004d40:	e0bff715 	stw	r2,-36(fp)
 4004d44:	e0bff517 	ldw	r2,-44(fp)
 4004d48:	e0bffc15 	stw	r2,-16(fp)
 4004d4c:	e0800217 	ldw	r2,8(fp)
 4004d50:	1004c03a 	cmpne	r2,r2,zero
 4004d54:	103fd51e 	bne	r2,zero,4004cac <alt_epcs_flash_write_block+0x4c>
 4004d58:	e0bff917 	ldw	r2,-28(fp)
 4004d5c:	e037883a 	mov	sp,fp
 4004d60:	dfc00117 	ldw	ra,4(sp)
 4004d64:	df000017 	ldw	fp,0(sp)
 4004d68:	dec00204 	addi	sp,sp,8
 4004d6c:	f800283a 	ret

04004d70 <alt_epcs_flash_read>:
 4004d70:	defff804 	addi	sp,sp,-32
 4004d74:	dfc00715 	stw	ra,28(sp)
 4004d78:	df000615 	stw	fp,24(sp)
 4004d7c:	df000604 	addi	fp,sp,24
 4004d80:	e13ffc15 	stw	r4,-16(fp)
 4004d84:	e17ffd15 	stw	r5,-12(fp)
 4004d88:	e1bffe15 	stw	r6,-8(fp)
 4004d8c:	e1ffff15 	stw	r7,-4(fp)
 4004d90:	e03ffb15 	stw	zero,-20(fp)
 4004d94:	e0bffc17 	ldw	r2,-16(fp)
 4004d98:	e0bffa15 	stw	r2,-24(fp)
 4004d9c:	e13ffc17 	ldw	r4,-16(fp)
 4004da0:	e17ffd17 	ldw	r5,-12(fp)
 4004da4:	4004bcc0 	call	4004bcc <alt_epcs_test_address>
 4004da8:	e0bffb15 	stw	r2,-20(fp)
 4004dac:	e0bffb17 	ldw	r2,-20(fp)
 4004db0:	1004803a 	cmplt	r2,r2,zero
 4004db4:	10000b1e 	bne	r2,zero,4004de4 <alt_epcs_flash_read+0x74>
 4004db8:	e0bffa17 	ldw	r2,-24(fp)
 4004dbc:	11002d17 	ldw	r4,180(r2)
 4004dc0:	e1bffe17 	ldw	r6,-8(fp)
 4004dc4:	e17ffd17 	ldw	r5,-12(fp)
 4004dc8:	e1ffff17 	ldw	r7,-4(fp)
 4004dcc:	40064a40 	call	40064a4 <epcs_read_buffer>
 4004dd0:	e0bffb15 	stw	r2,-20(fp)
 4004dd4:	e0fffb17 	ldw	r3,-20(fp)
 4004dd8:	e0bfff17 	ldw	r2,-4(fp)
 4004ddc:	1880011e 	bne	r3,r2,4004de4 <alt_epcs_flash_read+0x74>
 4004de0:	e03ffb15 	stw	zero,-20(fp)
 4004de4:	e0bffb17 	ldw	r2,-20(fp)
 4004de8:	e037883a 	mov	sp,fp
 4004dec:	dfc00117 	ldw	ra,4(sp)
 4004df0:	df000017 	ldw	fp,0(sp)
 4004df4:	dec00204 	addi	sp,sp,8
 4004df8:	f800283a 	ret

04004dfc <altera_avalon_jtag_uart_read_fd>:
 *
 */

int 
altera_avalon_jtag_uart_read_fd(alt_fd* fd, char* buffer, int space)
{
 4004dfc:	defffa04 	addi	sp,sp,-24
 4004e00:	dfc00515 	stw	ra,20(sp)
 4004e04:	df000415 	stw	fp,16(sp)
 4004e08:	df000404 	addi	fp,sp,16
 4004e0c:	e13ffd15 	stw	r4,-12(fp)
 4004e10:	e17ffe15 	stw	r5,-8(fp)
 4004e14:	e1bfff15 	stw	r6,-4(fp)
    altera_avalon_jtag_uart_dev* dev = (altera_avalon_jtag_uart_dev*) fd->dev; 
 4004e18:	e0bffd17 	ldw	r2,-12(fp)
 4004e1c:	10800017 	ldw	r2,0(r2)
 4004e20:	e0bffc15 	stw	r2,-16(fp)

    return altera_avalon_jtag_uart_read(&dev->state, buffer, space,
 4004e24:	e0bffc17 	ldw	r2,-16(fp)
 4004e28:	11000a04 	addi	r4,r2,40
 4004e2c:	e0bffd17 	ldw	r2,-12(fp)
 4004e30:	11c00217 	ldw	r7,8(r2)
 4004e34:	e17ffe17 	ldw	r5,-8(fp)
 4004e38:	e1bfff17 	ldw	r6,-4(fp)
 4004e3c:	40054440 	call	4005444 <altera_avalon_jtag_uart_read>
      fd->fd_flags);
}
 4004e40:	e037883a 	mov	sp,fp
 4004e44:	dfc00117 	ldw	ra,4(sp)
 4004e48:	df000017 	ldw	fp,0(sp)
 4004e4c:	dec00204 	addi	sp,sp,8
 4004e50:	f800283a 	ret

04004e54 <altera_avalon_jtag_uart_write_fd>:

int 
altera_avalon_jtag_uart_write_fd(alt_fd* fd, const char* buffer, int space)
{
 4004e54:	defffa04 	addi	sp,sp,-24
 4004e58:	dfc00515 	stw	ra,20(sp)
 4004e5c:	df000415 	stw	fp,16(sp)
 4004e60:	df000404 	addi	fp,sp,16
 4004e64:	e13ffd15 	stw	r4,-12(fp)
 4004e68:	e17ffe15 	stw	r5,-8(fp)
 4004e6c:	e1bfff15 	stw	r6,-4(fp)
    altera_avalon_jtag_uart_dev* dev = (altera_avalon_jtag_uart_dev*) fd->dev; 
 4004e70:	e0bffd17 	ldw	r2,-12(fp)
 4004e74:	10800017 	ldw	r2,0(r2)
 4004e78:	e0bffc15 	stw	r2,-16(fp)

    return altera_avalon_jtag_uart_write(&dev->state, buffer, space,
 4004e7c:	e0bffc17 	ldw	r2,-16(fp)
 4004e80:	11000a04 	addi	r4,r2,40
 4004e84:	e0bffd17 	ldw	r2,-12(fp)
 4004e88:	11c00217 	ldw	r7,8(r2)
 4004e8c:	e17ffe17 	ldw	r5,-8(fp)
 4004e90:	e1bfff17 	ldw	r6,-4(fp)
 4004e94:	40056680 	call	4005668 <altera_avalon_jtag_uart_write>
      fd->fd_flags);
}
 4004e98:	e037883a 	mov	sp,fp
 4004e9c:	dfc00117 	ldw	ra,4(sp)
 4004ea0:	df000017 	ldw	fp,0(sp)
 4004ea4:	dec00204 	addi	sp,sp,8
 4004ea8:	f800283a 	ret

04004eac <altera_avalon_jtag_uart_close_fd>:

#ifndef ALTERA_AVALON_JTAG_UART_SMALL

int 
altera_avalon_jtag_uart_close_fd(alt_fd* fd)
{
 4004eac:	defffc04 	addi	sp,sp,-16
 4004eb0:	dfc00315 	stw	ra,12(sp)
 4004eb4:	df000215 	stw	fp,8(sp)
 4004eb8:	df000204 	addi	fp,sp,8
 4004ebc:	e13fff15 	stw	r4,-4(fp)
    altera_avalon_jtag_uart_dev* dev = (altera_avalon_jtag_uart_dev*) fd->dev; 
 4004ec0:	e0bfff17 	ldw	r2,-4(fp)
 4004ec4:	10800017 	ldw	r2,0(r2)
 4004ec8:	e0bffe15 	stw	r2,-8(fp)

    return altera_avalon_jtag_uart_close(&dev->state, fd->fd_flags);
 4004ecc:	e0bffe17 	ldw	r2,-8(fp)
 4004ed0:	11000a04 	addi	r4,r2,40
 4004ed4:	e0bfff17 	ldw	r2,-4(fp)
 4004ed8:	11400217 	ldw	r5,8(r2)
 4004edc:	40052dc0 	call	40052dc <altera_avalon_jtag_uart_close>
}
 4004ee0:	e037883a 	mov	sp,fp
 4004ee4:	dfc00117 	ldw	ra,4(sp)
 4004ee8:	df000017 	ldw	fp,0(sp)
 4004eec:	dec00204 	addi	sp,sp,8
 4004ef0:	f800283a 	ret

04004ef4 <altera_avalon_jtag_uart_ioctl_fd>:

int 
altera_avalon_jtag_uart_ioctl_fd(alt_fd* fd, int req, void* arg)
{
 4004ef4:	defffa04 	addi	sp,sp,-24
 4004ef8:	dfc00515 	stw	ra,20(sp)
 4004efc:	df000415 	stw	fp,16(sp)
 4004f00:	df000404 	addi	fp,sp,16
 4004f04:	e13ffd15 	stw	r4,-12(fp)
 4004f08:	e17ffe15 	stw	r5,-8(fp)
 4004f0c:	e1bfff15 	stw	r6,-4(fp)
    altera_avalon_jtag_uart_dev* dev = (altera_avalon_jtag_uart_dev*) fd->dev;
 4004f10:	e0bffd17 	ldw	r2,-12(fp)
 4004f14:	10800017 	ldw	r2,0(r2)
 4004f18:	e0bffc15 	stw	r2,-16(fp)

    return altera_avalon_jtag_uart_ioctl(&dev->state, req, arg);
 4004f1c:	e0bffc17 	ldw	r2,-16(fp)
 4004f20:	11000a04 	addi	r4,r2,40
 4004f24:	e17ffe17 	ldw	r5,-8(fp)
 4004f28:	e1bfff17 	ldw	r6,-4(fp)
 4004f2c:	40053500 	call	4005350 <altera_avalon_jtag_uart_ioctl>
}
 4004f30:	e037883a 	mov	sp,fp
 4004f34:	dfc00117 	ldw	ra,4(sp)
 4004f38:	df000017 	ldw	fp,0(sp)
 4004f3c:	dec00204 	addi	sp,sp,8
 4004f40:	f800283a 	ret

04004f44 <altera_avalon_jtag_uart_init>:
 * Return 1 on sucessful IRQ register and 0 on failure.
 */

void altera_avalon_jtag_uart_init(altera_avalon_jtag_uart_state* sp, 
                                  int irq_controller_id, int irq)
{
 4004f44:	defffa04 	addi	sp,sp,-24
 4004f48:	dfc00515 	stw	ra,20(sp)
 4004f4c:	df000415 	stw	fp,16(sp)
 4004f50:	df000404 	addi	fp,sp,16
 4004f54:	e13ffd15 	stw	r4,-12(fp)
 4004f58:	e17ffe15 	stw	r5,-8(fp)
 4004f5c:	e1bfff15 	stw	r6,-4(fp)
  ALT_FLAG_CREATE(&sp->events, 0);
  ALT_SEM_CREATE(&sp->read_lock, 1);
  ALT_SEM_CREATE(&sp->write_lock, 1);

  /* enable read interrupts at the device */
  sp->irq_enable = ALTERA_AVALON_JTAG_UART_CONTROL_RE_MSK;
 4004f60:	e0fffd17 	ldw	r3,-12(fp)
 4004f64:	00800044 	movi	r2,1
 4004f68:	18800815 	stw	r2,32(r3)

  IOWR_ALTERA_AVALON_JTAG_UART_CONTROL(sp->base, sp->irq_enable); 
 4004f6c:	e0bffd17 	ldw	r2,-12(fp)
 4004f70:	10800017 	ldw	r2,0(r2)
 4004f74:	11000104 	addi	r4,r2,4
 4004f78:	e0bffd17 	ldw	r2,-12(fp)
 4004f7c:	10800817 	ldw	r2,32(r2)
 4004f80:	1007883a 	mov	r3,r2
 4004f84:	2005883a 	mov	r2,r4
 4004f88:	10c00035 	stwio	r3,0(r2)
  
  /* register the interrupt handler */
#ifdef ALT_ENHANCED_INTERRUPT_API_PRESENT
  alt_ic_isr_register(irq_controller_id, irq, altera_avalon_jtag_uart_irq, 
 4004f8c:	e13ffe17 	ldw	r4,-8(fp)
 4004f90:	e17fff17 	ldw	r5,-4(fp)
 4004f94:	d8000015 	stw	zero,0(sp)
 4004f98:	01810034 	movhi	r6,1024
 4004f9c:	31940104 	addi	r6,r6,20484
 4004fa0:	e1fffd17 	ldw	r7,-12(fp)
 4004fa4:	4006f040 	call	4006f04 <alt_ic_isr_register>
#else
  alt_irq_register(irq, sp, altera_avalon_jtag_uart_irq);
#endif  

  /* Register an alarm to go off every second to check for presence of host */
  sp->host_inactive = 0;
 4004fa8:	e0bffd17 	ldw	r2,-12(fp)
 4004fac:	10000915 	stw	zero,36(r2)

  if (alt_alarm_start(&sp->alarm, alt_ticks_per_second(), 
 4004fb0:	e0bffd17 	ldw	r2,-12(fp)
 4004fb4:	11000204 	addi	r4,r2,8
 * Obtain the system clock rate in ticks/s. 
 */

static ALT_INLINE alt_u32 ALT_ALWAYS_INLINE alt_ticks_per_second (void)
{
  return _alt_tick_rate;
 4004fb8:	00810074 	movhi	r2,1025
 4004fbc:	10ac9504 	addi	r2,r2,-19884
 4004fc0:	10800017 	ldw	r2,0(r2)
 4004fc4:	100b883a 	mov	r5,r2
 4004fc8:	01810034 	movhi	r6,1024
 4004fcc:	31948b04 	addi	r6,r6,21036
 4004fd0:	e1fffd17 	ldw	r7,-12(fp)
 4004fd4:	40067b80 	call	40067b8 <alt_alarm_start>
 4004fd8:	1004403a 	cmpge	r2,r2,zero
 4004fdc:	1000041e 	bne	r2,zero,4004ff0 <altera_avalon_jtag_uart_init+0xac>
    &altera_avalon_jtag_uart_timeout, sp) < 0)
  {
    /* If we can't set the alarm then record "don't know if host present" 
     * and behave as though the host is present.
     */
    sp->timeout = INT_MAX;
 4004fe0:	e0fffd17 	ldw	r3,-12(fp)
 4004fe4:	00a00034 	movhi	r2,32768
 4004fe8:	10bfffc4 	addi	r2,r2,-1
 4004fec:	18800115 	stw	r2,4(r3)
  }

  /* ALT_LOG - see altera_hal/HAL/inc/sys/alt_log_printf.h */ 
  ALT_LOG_JTAG_UART_ALARM_REGISTER(sp, sp->base);
}
 4004ff0:	e037883a 	mov	sp,fp
 4004ff4:	dfc00117 	ldw	ra,4(sp)
 4004ff8:	df000017 	ldw	fp,0(sp)
 4004ffc:	dec00204 	addi	sp,sp,8
 4005000:	f800283a 	ret

04005004 <altera_avalon_jtag_uart_irq>:
#ifdef ALT_ENHANCED_INTERRUPT_API_PRESENT
static void altera_avalon_jtag_uart_irq(void* context)
#else
static void altera_avalon_jtag_uart_irq(void* context, alt_u32 id)
#endif
{
 4005004:	defff804 	addi	sp,sp,-32
 4005008:	df000715 	stw	fp,28(sp)
 400500c:	df000704 	addi	fp,sp,28
 4005010:	e13fff15 	stw	r4,-4(fp)
  altera_avalon_jtag_uart_state* sp = (altera_avalon_jtag_uart_state*) context;
 4005014:	e0bfff17 	ldw	r2,-4(fp)
 4005018:	e0bffe15 	stw	r2,-8(fp)
  unsigned int base = sp->base;
 400501c:	e0bffe17 	ldw	r2,-8(fp)
 4005020:	10800017 	ldw	r2,0(r2)
 4005024:	e0bffd15 	stw	r2,-12(fp)
 4005028:	00000006 	br	400502c <altera_avalon_jtag_uart_irq+0x28>
  /* ALT_LOG - see altera_hal/HAL/inc/sys/alt_log_printf.h */ 
  ALT_LOG_JTAG_UART_ISR_FUNCTION(base, sp);

  for ( ; ; )
  {
    unsigned int control = IORD_ALTERA_AVALON_JTAG_UART_CONTROL(base);
 400502c:	e0bffd17 	ldw	r2,-12(fp)
 4005030:	10800104 	addi	r2,r2,4
 4005034:	10800037 	ldwio	r2,0(r2)
 4005038:	e0bffc15 	stw	r2,-16(fp)

    /* Return once nothing more to do */
    if ((control & (ALTERA_AVALON_JTAG_UART_CONTROL_RI_MSK | ALTERA_AVALON_JTAG_UART_CONTROL_WI_MSK)) == 0)
 400503c:	e0bffc17 	ldw	r2,-16(fp)
 4005040:	1080c00c 	andi	r2,r2,768
 4005044:	1005003a 	cmpeq	r2,r2,zero
